                 w _ITM_deregisterTMCloneTable
                 w _ITM_registerTMCloneTable
                 U _Unwind_Resume@@GCC_3.0
                 U _ZNKSt12__basic_fileIcE7is_openEv@@GLIBCXX_3.4
                 U _ZNKSt5ctypeIcE13_M_widen_initEv@@GLIBCXX_3.4.11
                 U _ZNKSt7__cxx1112basic_stringIcSt11char_traitsIcESaIcEE12find_last_ofEPKcmm@@GLIBCXX_3.4.21
                 U _ZNKSt7__cxx1112basic_stringIcSt11char_traitsIcESaIcEE16find_last_not_ofEPKcmm@@GLIBCXX_3.4.21
                 U _ZNKSt7__cxx1112basic_stringIcSt11char_traitsIcESaIcEE16find_last_not_ofEcm@@GLIBCXX_3.4.21
                 U _ZNKSt7__cxx1112basic_stringIcSt11char_traitsIcESaIcEE17find_first_not_ofEPKcmm@@GLIBCXX_3.4.21
                 U _ZNKSt7__cxx1112basic_stringIcSt11char_traitsIcESaIcEE4findEPKcmm@@GLIBCXX_3.4.21
                 U _ZNKSt7__cxx1112basic_stringIcSt11char_traitsIcESaIcEE4findEcm@@GLIBCXX_3.4.21
                 U _ZNKSt7__cxx1112basic_stringIcSt11char_traitsIcESaIcEE5rfindEPKcmm@@GLIBCXX_3.4.21
                 U _ZNKSt7__cxx1112basic_stringIcSt11char_traitsIcESaIcEE5rfindEcm@@GLIBCXX_3.4.21
                 U _ZNKSt7__cxx1112basic_stringIcSt11char_traitsIcESaIcEE6substrEmm@@GLIBCXX_3.4.21
                 U _ZNKSt7__cxx1112basic_stringIcSt11char_traitsIcESaIcEE7compareEPKc@@GLIBCXX_3.4.21
                 U _ZNKSt7__cxx1112basic_stringIcSt11char_traitsIcESaIcEE7compareERKS4_@@GLIBCXX_3.4.21
                 U _ZNKSt7__cxx1112basic_stringIcSt11char_traitsIcESaIcEE7compareEmmPKc@@GLIBCXX_3.4.21
                 U _ZNKSt7__cxx1115basic_stringbufIcSt11char_traitsIcESaIcEE3strEv@@GLIBCXX_3.4.21
                 U _ZNSi10_M_extractIjEERSiRT_@@GLIBCXX_3.4.9
                 U _ZNSirsERi@@GLIBCXX_3.4
                 U _ZNSo3putEc@@GLIBCXX_3.4
                 U _ZNSo5flushEv@@GLIBCXX_3.4
                 U _ZNSo9_M_insertIdEERSoT_@@GLIBCXX_3.4.9
                 U _ZNSo9_M_insertImEERSoT_@@GLIBCXX_3.4.9
                 U _ZNSolsEi@@GLIBCXX_3.4
                 U _ZNSt11logic_errorC1EPKc@@GLIBCXX_3.4.21
                 U _ZNSt11logic_errorC1ERKNSt7__cxx1112basic_stringIcSt11char_traitsIcESaIcEEE@@GLIBCXX_3.4.21
                 U _ZNSt11logic_errorD1Ev@@GLIBCXX_3.4
                 U _ZNSt12__basic_fileIcED1Ev@@GLIBCXX_3.4
                 U _ZNSt12domain_errorC1EPKc@@GLIBCXX_3.4.21
                 U _ZNSt12domain_errorC1ERKNSt7__cxx1112basic_stringIcSt11char_traitsIcESaIcEEE@@GLIBCXX_3.4.21
                 U _ZNSt12domain_errorD1Ev@@GLIBCXX_3.4
                 U _ZNSt13basic_filebufIcSt11char_traitsIcEE4openEPKcSt13_Ios_Openmode@@GLIBCXX_3.4
                 U _ZNSt13basic_filebufIcSt11char_traitsIcEE5closeEv@@GLIBCXX_3.4
                 U _ZNSt13basic_filebufIcSt11char_traitsIcEEC1Ev@@GLIBCXX_3.4
                 U _ZNSt13basic_filebufIcSt11char_traitsIcEED1Ev@@GLIBCXX_3.4
                 U _ZNSt13runtime_errorC1EPKc@@GLIBCXX_3.4.21
                 U _ZNSt13runtime_errorC1ERKNSt7__cxx1112basic_stringIcSt11char_traitsIcESaIcEEE@@GLIBCXX_3.4.21
                 U _ZNSt13runtime_errorD1Ev@@GLIBCXX_3.4
                 U _ZNSt14basic_ifstreamIcSt11char_traitsIcEE4openEPKcSt13_Ios_Openmode@@GLIBCXX_3.4
                 U _ZNSt14basic_ifstreamIcSt11char_traitsIcEED1Ev@@GLIBCXX_3.4
                 U _ZNSt14basic_ofstreamIcSt11char_traitsIcEED1Ev@@GLIBCXX_3.4
                 U _ZNSt15basic_streambufIcSt11char_traitsIcEE5imbueERKSt6locale@@GLIBCXX_3.4
                 U _ZNSt15basic_streambufIcSt11char_traitsIcEE5uflowEv@@GLIBCXX_3.4
                 U _ZNSt15basic_streambufIcSt11char_traitsIcEE6setbufEPcl@@GLIBCXX_3.4
                 U _ZNSt15basic_streambufIcSt11char_traitsIcEE6xsgetnEPcl@@GLIBCXX_3.4
                 U _ZNSt15basic_streambufIcSt11char_traitsIcEE6xsputnEPKcl@@GLIBCXX_3.4
                 U _ZNSt15basic_streambufIcSt11char_traitsIcEE7seekoffElSt12_Ios_SeekdirSt13_Ios_Openmode@@GLIBCXX_3.4
                 U _ZNSt15basic_streambufIcSt11char_traitsIcEE7seekposESt4fposI11__mbstate_tESt13_Ios_Openmode@@GLIBCXX_3.4
                 U _ZNSt15basic_streambufIcSt11char_traitsIcEE9pbackfailEi@@GLIBCXX_3.4
                 U _ZNSt15basic_streambufIcSt11char_traitsIcEE9showmanycEv@@GLIBCXX_3.4
                 U _ZNSt15basic_streambufIcSt11char_traitsIcEE9underflowEv@@GLIBCXX_3.4
                 U _ZNSt6localeC1Ev@@GLIBCXX_3.4
                 U _ZNSt6localeD1Ev@@GLIBCXX_3.4
                 U _ZNSt7__cxx1112basic_stringIcSt11char_traitsIcESaIcEE10_M_replaceEmmPKcm@@GLIBCXX_3.4.21
                 U _ZNSt7__cxx1112basic_stringIcSt11char_traitsIcESaIcEE12_M_constructEmc@@GLIBCXX_3.4.21
                 U _ZNSt7__cxx1112basic_stringIcSt11char_traitsIcESaIcEE14_M_replace_auxEmmmc@@GLIBCXX_3.4.21
                 U _ZNSt7__cxx1112basic_stringIcSt11char_traitsIcESaIcEE4swapERS4_@@GLIBCXX_3.4.21
                 U _ZNSt7__cxx1112basic_stringIcSt11char_traitsIcESaIcEE6appendEPKc@@GLIBCXX_3.4.21
                 U _ZNSt7__cxx1112basic_stringIcSt11char_traitsIcESaIcEE6assignEPKc@@GLIBCXX_3.4.21
                 U _ZNSt7__cxx1112basic_stringIcSt11char_traitsIcESaIcEE7replaceEmmPKcm@@GLIBCXX_3.4.21
                 U _ZNSt7__cxx1112basic_stringIcSt11char_traitsIcESaIcEE7reserveEm@@GLIBCXX_3.4.21
                 U _ZNSt7__cxx1112basic_stringIcSt11char_traitsIcESaIcEE9_M_appendEPKcm@@GLIBCXX_3.4.21
                 U _ZNSt7__cxx1112basic_stringIcSt11char_traitsIcESaIcEE9_M_assignERKS4_@@GLIBCXX_3.4.21
                 U _ZNSt7__cxx1112basic_stringIcSt11char_traitsIcESaIcEE9_M_createERmm@@GLIBCXX_3.4.21
                 U _ZNSt7__cxx1112basic_stringIcSt11char_traitsIcESaIcEE9_M_mutateEmmPKcm@@GLIBCXX_3.4.21
                 U _ZNSt7__cxx1112basic_stringIcSt11char_traitsIcESaIcEEaSEOS4_@@GLIBCXX_3.4.21
                 U _ZNSt7__cxx1112basic_stringIwSt11char_traitsIwESaIwEE9_M_createERmm@@GLIBCXX_3.4.21
                 U _ZNSt7__cxx1115basic_stringbufIcSt11char_traitsIcESaIcEE7_M_syncEPcmm@@GLIBCXX_3.4.21
                 U _ZNSt7__cxx1118basic_stringstreamIcSt11char_traitsIcESaIcEEC1ESt13_Ios_Openmode@@GLIBCXX_3.4.21
                 U _ZNSt7__cxx1118basic_stringstreamIcSt11char_traitsIcESaIcEED1Ev@@GLIBCXX_3.4.21
                 U _ZNSt7__cxx1119basic_ostringstreamIcSt11char_traitsIcESaIcEEC1ESt13_Ios_Openmode@@GLIBCXX_3.4.21
                 U _ZNSt7__cxx1119basic_ostringstreamIcSt11char_traitsIcESaIcEED1Ev@@GLIBCXX_3.4.21
                 U _ZNSt8ios_base4InitC1Ev@@GLIBCXX_3.4
                 U _ZNSt8ios_base4InitD1Ev@@GLIBCXX_3.4
                 U _ZNSt8ios_baseC2Ev@@GLIBCXX_3.4
                 U _ZNSt8ios_baseD2Ev@@GLIBCXX_3.4
                 U _ZNSt9basic_iosIcSt11char_traitsIcEE4initEPSt15basic_streambufIcS1_E@@GLIBCXX_3.4
                 U _ZNSt9basic_iosIcSt11char_traitsIcEE5clearESt12_Ios_Iostate@@GLIBCXX_3.4
                 U _ZNSt9basic_iosIcSt11char_traitsIcEE5rdbufEPSt15basic_streambufIcS1_E@@GLIBCXX_3.4
                 U _ZSt16__ostream_insertIcSt11char_traitsIcEERSt13basic_ostreamIT_T0_ES6_PKS3_l@@GLIBCXX_3.4.9
                 U _ZSt16__throw_bad_castv@@GLIBCXX_3.4
                 U _ZSt17__throw_bad_allocv@@GLIBCXX_3.4
                 U _ZSt18_Rb_tree_decrementPSt18_Rb_tree_node_base@@GLIBCXX_3.4
                 U _ZSt18_Rb_tree_incrementPKSt18_Rb_tree_node_base@@GLIBCXX_3.4
                 U _ZSt19__throw_logic_errorPKc@@GLIBCXX_3.4
                 U _ZSt20__throw_length_errorPKc@@GLIBCXX_3.4
                 U _ZSt24__throw_out_of_range_fmtPKcz@@GLIBCXX_3.4.20
                 U _ZSt29_Rb_tree_insert_and_rebalancebPSt18_Rb_tree_node_baseS0_RS_@@GLIBCXX_3.4
                 U _ZSt4endlIcSt11char_traitsIcEERSt13basic_ostreamIT_T0_ES6_@@GLIBCXX_3.4
                 U _ZSt7getlineIcSt11char_traitsIcESaIcEERSt13basic_istreamIT_T0_ES7_RNSt7__cxx1112basic_stringIS4_S5_T1_EES4_@@GLIBCXX_3.4.21
                 U _ZStlsISt11char_traitsIcEERSt13basic_ostreamIcT_ES5_PKc@@GLIBCXX_3.4
                 U _ZTIPKc@@CXXABI_1.3
                 U _ZTVN10__cxxabiv117__class_type_infoE@@CXXABI_1.3
                 U _ZTVN10__cxxabiv120__si_class_type_infoE@@CXXABI_1.3
                 U _ZdlPv@@GLIBCXX_3.4
                 U _Znwm@@GLIBCXX_3.4
                 U __assert_fail@@GLIBC_2.2.5
                 U __cxa_allocate_exception@@CXXABI_1.3
                 U __cxa_atexit@@GLIBC_2.2.5
                 U __cxa_begin_catch@@CXXABI_1.3
                 U __cxa_end_catch@@CXXABI_1.3
                 w __cxa_finalize@@GLIBC_2.2.5
                 U __cxa_free_exception@@CXXABI_1.3
                 U __cxa_pure_virtual@@CXXABI_1.3
                 U __cxa_rethrow@@CXXABI_1.3
                 U __cxa_throw@@CXXABI_1.3
                 U __errno_location@@GLIBC_2.2.5
                 w __gmon_start__
                 U __gxx_personality_v0@@CXXABI_1.3
                 U __libc_start_main@@GLIBC_2.2.5
                 U __sprintf_chk@@GLIBC_2.3.4
                 U __stack_chk_fail@@GLIBC_2.4
                 U gettimeofday@@GLIBC_2.2.5
                 U gmtime@@GLIBC_2.2.5
                 U isalnum@@GLIBC_2.2.5
                 U isatty@@GLIBC_2.2.5
                 U memcmp@@GLIBC_2.2.5
                 U memcpy@@GLIBC_2.14
                 U memmove@@GLIBC_2.2.5
                 U raise@@GLIBC_2.2.5
                 U rand@@GLIBC_2.2.5
                 U sigaction@@GLIBC_2.2.5
                 U sigaltstack@@GLIBC_2.2.5
                 U srand@@GLIBC_2.2.5
                 U strcmp@@GLIBC_2.2.5
                 U strftime@@GLIBC_2.2.5
                 U strlen@@GLIBC_2.2.5
                 U time@@GLIBC_2.2.5
                 U tolower@@GLIBC_2.2.5
                 U wmemcpy@@GLIBC_2.2.5
00000000000064d0 T _init
0000000000006bd0 0000000000000023 t _ZN5Catch16TestCaseTracking11TrackerBase12moveToParentEv.isra.55.part.56
0000000000006bf3 0000000000000053 t _ZN5Catch21FatalConditionHandler5resetEv.part.57
0000000000006c46 000000000000001f t _ZN5Catch13ResultBuilder5reactEv.part.65
0000000000006c70 0000000000000007 t _GLOBAL__sub_D_leakDetector
0000000000006c80 0000000000000773 T main
0000000000007400 000000000000000a t _GLOBAL__sub_I_leakDetector
0000000000007410 000000000000002b T _start
0000000000007440 t deregister_tm_clones
0000000000007480 t register_tm_clones
00000000000074d0 t __do_global_dtors_aux
0000000000007510 t frame_dummy
0000000000007520 0000000000000003 W _ZNKSt5ctypeIcE8do_widenEc
0000000000007530 0000000000000003 W _ZNK5Catch20DecomposedExpression18isBinaryExpressionEv
0000000000007540 0000000000000016 W _ZNK5Catch8TestSpec15ExcludedPattern7matchesERKNS_12TestCaseInfoE
0000000000007560 0000000000000008 W _ZNK5Catch6Config16getSectionsToRunB5cxx11Ev
0000000000007570 0000000000000008 W _ZNK5Catch6Config8testSpecEv
0000000000007580 0000000000000008 W _ZNK5Catch6Config11allowThrowsEv
0000000000007590 000000000000000d W _ZNK5Catch6Config6streamEv
00000000000075a0 0000000000000005 W _ZNK5Catch6Config24includeSuccessfulResultsEv
00000000000075b0 0000000000000007 W _ZNK5Catch6Config26warnAboutMissingAssertionsEv
00000000000075c0 0000000000000004 W _ZNK5Catch6Config13showDurationsEv
00000000000075d0 0000000000000004 W _ZNK5Catch6Config8runOrderEv
00000000000075e0 0000000000000004 W _ZNK5Catch6Config7rngSeedEv
00000000000075f0 0000000000000004 W _ZNK5Catch6Config9useColourEv
0000000000007600 0000000000000005 W _ZNK5Catch6Config16shouldDebugBreakEv
0000000000007610 0000000000000004 W _ZNK5Catch6Config10abortAfterEv
0000000000007620 0000000000000005 W _ZNK5Catch6Config14showInvisiblesEv
0000000000007630 0000000000000008 W _ZN5Catch15abortAfterFirstERNS_10ConfigDataE
0000000000007640 000000000000000f W _ZN5Catch16setShowDurationsERNS_10ConfigDataEb
0000000000007650 0000000000000008 W _ZN5Catch11forceColourERNS_10ConfigDataE
0000000000007660 0000000000000003 W _ZN5Catch18IStreamingReporter10tryAsMultiEv
0000000000007670 0000000000000005 W _ZNK5Catch16TestCaseTracking11TrackerBase15nameAndLocationEv
0000000000007680 000000000000000d W _ZNK5Catch16TestCaseTracking11TrackerBase10isCompleteEv
0000000000007690 0000000000000008 W _ZNK5Catch16TestCaseTracking11TrackerBase23isSuccessfullyCompletedEv
00000000000076a0 000000000000000c W _ZNK5Catch16TestCaseTracking11TrackerBase11hasChildrenEv
00000000000076b0 0000000000000003 W _ZNK5Catch16TestCaseTracking11TrackerBase16isSectionTrackerEv
00000000000076c0 0000000000000003 W _ZNK5Catch16TestCaseTracking11TrackerBase14isIndexTrackerEv
00000000000076d0 0000000000000008 W _ZN5Catch16TestCaseTracking11TrackerBase23markAsNeedingAnotherRunEv
00000000000076e0 0000000000000006 W _ZNK5Catch16TestCaseTracking14SectionTracker16isSectionTrackerEv
00000000000076f0 0000000000000005 W _ZNK5Catch10RunContext13getLastResultEv
0000000000007700 0000000000000008 W _ZN5Catch10RunContext22exceptionEarlyReportedEv
0000000000007710 0000000000000005 W _ZNK5Catch12TestRegistry11getAllTestsEv
0000000000007720 0000000000000003 W _ZNK5Catch20FreeFunctionTestCase6invokeEv
0000000000007730 0000000000000005 W _ZNK5Catch16ReporterRegistry12getFactoriesB5cxx11Ev
0000000000007740 0000000000000005 W _ZNK5Catch16ReporterRegistry12getListenersEv
0000000000007750 0000000000000005 t _ZNK5Catch12_GLOBAL__N_111RegistryHub19getReporterRegistryEv
0000000000007760 0000000000000005 t _ZNK5Catch12_GLOBAL__N_111RegistryHub19getTestCaseRegistryEv
0000000000007770 0000000000000008 t _ZN5Catch12_GLOBAL__N_111RegistryHub30getExceptionTranslatorRegistryEv
0000000000007780 0000000000000008 t _ZNK5Catch12_GLOBAL__N_111RegistryHub19getTagAliasRegistryEv
0000000000007790 0000000000000005 T _ZNK5Catch10FileStream6streamEv
00000000000077a0 0000000000000005 T _ZNK5Catch14DebugOutStream6streamEv
00000000000077b0 0000000000000005 T _ZNK5Catch10CoutStream6streamEv
00000000000077c0 0000000000000005 W _ZN5Catch7Context16getResultCaptureEv
00000000000077d0 0000000000000005 W _ZN5Catch7Context9getRunnerEv
00000000000077e0 0000000000000005 W _ZN5Catch7Context16setResultCaptureEPNS_14IResultCaptureE
00000000000077f0 0000000000000005 W _ZN5Catch7Context9setRunnerEPNS_7IRunnerE
0000000000007800 0000000000000002 t _ZN5Catch12_GLOBAL__N_112NoColourImpl3useENS_6Colour4CodeE
0000000000007810 0000000000000002 t __tcf_2
0000000000007820 000000000000002b W _ZN5Catch13GeneratorInfo8moveNextEv
0000000000007850 0000000000000005 W _ZNK5Catch13GeneratorInfo15getCurrentIndexEv
0000000000007860 000000000000000d W _ZNK5Catch17MultipleReporters14getPreferencesEv
0000000000007870 0000000000000032 W _ZN5Catch17MultipleReporters19noMatchingTestCasesERKNSt7__cxx1112basic_stringIcSt11char_traitsIcESaIcEEE
00000000000078b0 0000000000000032 W _ZN5Catch17MultipleReporters15testRunStartingERKNS_11TestRunInfoE
00000000000078f0 0000000000000032 W _ZN5Catch17MultipleReporters17testGroupStartingERKNS_9GroupInfoE
0000000000007930 0000000000000032 W _ZN5Catch17MultipleReporters16testCaseStartingERKNS_12TestCaseInfoE
0000000000007970 0000000000000032 W _ZN5Catch17MultipleReporters15sectionStartingERKNS_11SectionInfoE
00000000000079b0 0000000000000032 W _ZN5Catch17MultipleReporters17assertionStartingERKNS_13AssertionInfoE
00000000000079f0 0000000000000057 W _ZN5Catch17MultipleReporters14assertionEndedERKNS_14AssertionStatsE
0000000000007a50 0000000000000032 W _ZN5Catch17MultipleReporters12sectionEndedERKNS_12SectionStatsE
0000000000007a90 0000000000000032 W _ZN5Catch17MultipleReporters13testCaseEndedERKNS_13TestCaseStatsE
0000000000007ad0 0000000000000032 W _ZN5Catch17MultipleReporters14testGroupEndedERKNS_14TestGroupStatsE
0000000000007b10 0000000000000032 W _ZN5Catch17MultipleReporters12testRunEndedERKNS_12TestRunStatsE
0000000000007b50 0000000000000035 W _ZN5Catch17MultipleReporters8skipTestERKNS_12TestCaseInfoE
0000000000007b90 0000000000000004 W _ZN5Catch17MultipleReporters10tryAsMultiEv
0000000000007ba0 0000000000000008 W _ZNK5Catch21StreamingReporterBase14getPreferencesEv
0000000000007bb0 0000000000000008 W _ZNK5Catch22CumulativeReporterBase14getPreferencesEv
0000000000007bc0 0000000000000017 W _ZNK5Catch11XmlReporter16getStylesheetRefB5cxx11Ev
0000000000007be0 000000000000000f W _ZN5Catch13JunitReporter16testCaseStartingERKNS_12TestCaseInfoE
0000000000007bf0 0000000000000003 W _ZNK5Catch15CompactReporter14getPreferencesEv
0000000000007c00 0000000000000002 T _ZN5Catch20FreeFunctionTestCaseD1Ev
0000000000007c00 0000000000000002 T _ZN5Catch20FreeFunctionTestCaseD2Ev
0000000000007c10 0000000000000002 T _ZN5Catch6Config5dummyEv
0000000000007c20 0000000000000005 W _ZNK5Catch10SharedImplINS_7ISharedEE6addRefEv
0000000000007c30 0000000000000016 W _ZNK5Catch10SharedImplINS_7ISharedEE7releaseEv
0000000000007c50 0000000000000005 W _ZNK5Catch10SharedImplINS_7IConfigEE6addRefEv
0000000000007c60 0000000000000002 W _ZN5Catch17ReporterRegistrarINS_15CompactReporterEE15ReporterFactoryD1Ev
0000000000007c60 0000000000000002 W _ZN5Catch17ReporterRegistrarINS_15CompactReporterEE15ReporterFactoryD2Ev
0000000000007c70 0000000000000002 W _ZN5Catch17ReporterRegistrarINS_15ConsoleReporterEE15ReporterFactoryD1Ev
0000000000007c70 0000000000000002 W _ZN5Catch17ReporterRegistrarINS_15ConsoleReporterEE15ReporterFactoryD2Ev
0000000000007c80 0000000000000002 W _ZN5Catch17ReporterRegistrarINS_13JunitReporterEE15ReporterFactoryD1Ev
0000000000007c80 0000000000000002 W _ZN5Catch17ReporterRegistrarINS_13JunitReporterEE15ReporterFactoryD2Ev
0000000000007c90 0000000000000002 W _ZN5Catch17ReporterRegistrarINS_11XmlReporterEE15ReporterFactoryD1Ev
0000000000007c90 0000000000000002 W _ZN5Catch17ReporterRegistrarINS_11XmlReporterEE15ReporterFactoryD2Ev
0000000000007ca0 0000000000000002 W _ZN5Catch5Clara6Detail19BoundBinaryFunctionINS_10ConfigDataEbED1Ev
0000000000007ca0 0000000000000002 W _ZN5Catch5Clara6Detail19BoundBinaryFunctionINS_10ConfigDataEbED2Ev
0000000000007cb0 0000000000000002 W _ZN5Catch5Clara6Detail19BoundBinaryFunctionINS_10ConfigDataEiED1Ev
0000000000007cb0 0000000000000002 W _ZN5Catch5Clara6Detail19BoundBinaryFunctionINS_10ConfigDataEiED2Ev
0000000000007cc0 0000000000000002 W _ZN5Catch5Clara6Detail18BoundUnaryFunctionINS_10ConfigDataEED1Ev
0000000000007cc0 0000000000000002 W _ZN5Catch5Clara6Detail18BoundUnaryFunctionINS_10ConfigDataEED2Ev
0000000000007cd0 0000000000000002 W _ZN5Catch5Clara6Detail19BoundBinaryFunctionINS_10ConfigDataERKNSt7__cxx1112basic_stringIcSt11char_traitsIcESaIcEEEED1Ev
0000000000007cd0 0000000000000002 W _ZN5Catch5Clara6Detail19BoundBinaryFunctionINS_10ConfigDataERKNSt7__cxx1112basic_stringIcSt11char_traitsIcESaIcEEEED2Ev
0000000000007ce0 0000000000000002 W _ZN5Catch5Clara6Detail15BoundDataMemberINS_10ConfigDataEbED1Ev
0000000000007ce0 0000000000000002 W _ZN5Catch5Clara6Detail15BoundDataMemberINS_10ConfigDataEbED2Ev
0000000000007cf0 0000000000000002 W _ZN5Catch5Clara6Detail15BoundDataMemberINS_10ConfigDataENSt7__cxx1112basic_stringIcSt11char_traitsIcESaIcEEEED1Ev
0000000000007cf0 0000000000000002 W _ZN5Catch5Clara6Detail15BoundDataMemberINS_10ConfigDataENSt7__cxx1112basic_stringIcSt11char_traitsIcESaIcEEEED2Ev
0000000000007d00 0000000000000002 W _ZN5Catch5Clara6Detail10NullBinderINS_10ConfigDataEED1Ev
0000000000007d00 0000000000000002 W _ZN5Catch5Clara6Detail10NullBinderINS_10ConfigDataEED2Ev
0000000000007d10 0000000000000002 W _ZN5Catch16BinaryExpressionIRKiLNS_8Internal8OperatorE0ES2_ED1Ev
0000000000007d10 0000000000000002 W _ZN5Catch16BinaryExpressionIRKiLNS_8Internal8OperatorE0ES2_ED2Ev
0000000000007d20 0000000000000002 W _ZN5Catch13GeneratorInfoD1Ev
0000000000007d20 0000000000000002 W _ZN5Catch13GeneratorInfoD2Ev
0000000000007d30 0000000000000002 t _ZN5Catch12_GLOBAL__N_115PosixColourImplD1Ev
0000000000007d30 0000000000000002 t _ZN5Catch12_GLOBAL__N_115PosixColourImplD2Ev
0000000000007d40 0000000000000002 t _ZN5Catch12_GLOBAL__N_112NoColourImplD1Ev
0000000000007d40 0000000000000002 t _ZN5Catch12_GLOBAL__N_112NoColourImplD2Ev
0000000000007d50 0000000000000002 W _ZN5Catch13ExpressionLhsIbED1Ev
0000000000007d50 0000000000000002 W _ZN5Catch13ExpressionLhsIbED2Ev
0000000000007d60 0000000000000005 W _ZNK5Catch10SharedImplINS_16IReporterFactoryEE6addRefEv
0000000000007d70 0000000000000016 W _ZNK5Catch10SharedImplINS_16IReporterFactoryEE7releaseEv
0000000000007d90 0000000000000003 W _ZNK5Catch5Clara6Detail19BoundBinaryFunctionINS_10ConfigDataEbE8takesArgEv
0000000000007da0 0000000000000006 W _ZNK5Catch5Clara6Detail19BoundBinaryFunctionINS_10ConfigDataEiE8takesArgEv
0000000000007db0 0000000000000003 W _ZNK5Catch5Clara6Detail18BoundUnaryFunctionINS_10ConfigDataEE8takesArgEv
0000000000007dc0 0000000000000006 W _ZNK5Catch5Clara6Detail19BoundBinaryFunctionINS_10ConfigDataERKNSt7__cxx1112basic_stringIcSt11char_traitsIcESaIcEEEE8takesArgEv
0000000000007dd0 0000000000000003 W _ZNK5Catch5Clara6Detail15BoundDataMemberINS_10ConfigDataEbE8takesArgEv
0000000000007de0 0000000000000006 W _ZNK5Catch5Clara6Detail15BoundDataMemberINS_10ConfigDataENSt7__cxx1112basic_stringIcSt11char_traitsIcESaIcEEEE8takesArgEv
0000000000007df0 0000000000000002 W _ZNK5Catch5Clara6Detail10NullBinderINS_10ConfigDataEE3setERS3_RKNSt7__cxx1112basic_stringIcSt11char_traitsIcESaIcEEE
0000000000007e00 0000000000000006 W _ZNK5Catch5Clara6Detail10NullBinderINS_10ConfigDataEE8takesArgEv
0000000000007e10 0000000000000006 W _ZNK5Catch16BinaryExpressionIRKiLNS_8Internal8OperatorE0ES2_E18isBinaryExpressionEv
0000000000007e20 0000000000000005 W _ZNK5Catch10SharedImplINS_9ITestCaseEE6addRefEv
0000000000007e30 0000000000000005 W _ZNK5Catch10SharedImplINS_18IStreamingReporterEE6addRefEv
0000000000007e40 0000000000000016 W _ZNK5Catch10SharedImplINS_18IStreamingReporterEE7releaseEv
0000000000007e60 0000000000000022 W _ZNK5Catch5Clara6Detail19BoundBinaryFunctionINS_10ConfigDataEbE5cloneEv
0000000000007e90 0000000000000022 W _ZNK5Catch5Clara6Detail19BoundBinaryFunctionINS_10ConfigDataEiE5cloneEv
0000000000007ec0 0000000000000022 W _ZNK5Catch5Clara6Detail18BoundUnaryFunctionINS_10ConfigDataEE5cloneEv
0000000000007ef0 0000000000000022 W _ZNK5Catch5Clara6Detail19BoundBinaryFunctionINS_10ConfigDataERKNSt7__cxx1112basic_stringIcSt11char_traitsIcESaIcEEEE5cloneEv
0000000000007f20 0000000000000022 W _ZNK5Catch5Clara6Detail15BoundDataMemberINS_10ConfigDataEbE5cloneEv
0000000000007f50 0000000000000022 W _ZNK5Catch5Clara6Detail15BoundDataMemberINS_10ConfigDataENSt7__cxx1112basic_stringIcSt11char_traitsIcESaIcEEEE5cloneEv
0000000000007f80 000000000000001d W _ZNK5Catch5Clara6Detail10NullBinderINS_10ConfigDataEE5cloneEv
0000000000007fa0 0000000000000005 t _ZN5Catch12_GLOBAL__N_115PosixColourImplD0Ev
0000000000007fb0 0000000000000005 t _ZN5Catch12_GLOBAL__N_112NoColourImplD0Ev
0000000000007fc0 0000000000000005 W _ZN5Catch13ExpressionLhsIbED0Ev
0000000000007fd0 0000000000000005 W _ZN5Catch16BinaryExpressionIRKiLNS_8Internal8OperatorE0ES2_ED0Ev
0000000000007fe0 0000000000000005 T _ZN5Catch20FreeFunctionTestCaseD0Ev
0000000000007ff0 0000000000000005 W _ZN5Catch13GeneratorInfoD0Ev
0000000000008000 0000000000000005 W _ZN5Catch17ReporterRegistrarINS_15CompactReporterEE15ReporterFactoryD0Ev
0000000000008010 0000000000000005 W _ZN5Catch17ReporterRegistrarINS_15ConsoleReporterEE15ReporterFactoryD0Ev
0000000000008020 0000000000000005 W _ZN5Catch17ReporterRegistrarINS_13JunitReporterEE15ReporterFactoryD0Ev
0000000000008030 0000000000000005 W _ZN5Catch17ReporterRegistrarINS_11XmlReporterEE15ReporterFactoryD0Ev
0000000000008040 0000000000000005 W _ZN5Catch5Clara6Detail10NullBinderINS_10ConfigDataEED0Ev
0000000000008050 0000000000000005 W _ZN5Catch5Clara6Detail15BoundDataMemberINS_10ConfigDataENSt7__cxx1112basic_stringIcSt11char_traitsIcESaIcEEEED0Ev
0000000000008060 0000000000000005 W _ZN5Catch5Clara6Detail19BoundBinaryFunctionINS_10ConfigDataEbED0Ev
0000000000008070 0000000000000005 W _ZN5Catch5Clara6Detail19BoundBinaryFunctionINS_10ConfigDataEiED0Ev
0000000000008080 0000000000000005 W _ZN5Catch5Clara6Detail18BoundUnaryFunctionINS_10ConfigDataEED0Ev
0000000000008090 0000000000000005 W _ZN5Catch5Clara6Detail19BoundBinaryFunctionINS_10ConfigDataERKNSt7__cxx1112basic_stringIcSt11char_traitsIcESaIcEEEED0Ev
00000000000080a0 0000000000000005 W _ZN5Catch5Clara6Detail15BoundDataMemberINS_10ConfigDataEbED0Ev
00000000000080b0 000000000000002f W _ZN5Catch21StreamingReporterBase14testGroupEndedERKNS_14TestGroupStatsE
00000000000080e0 0000000000000022 T _ZN5Catch14TestGroupStatsD1Ev
00000000000080e0 0000000000000022 T _ZN5Catch14TestGroupStatsD2Ev
0000000000008110 0000000000000029 T _ZN5Catch14TestGroupStatsD0Ev
0000000000008140 0000000000000022 T _ZN5Catch12TestRunStatsD1Ev
0000000000008140 0000000000000022 T _ZN5Catch12TestRunStatsD2Ev
0000000000008170 0000000000000029 T _ZN5Catch12TestRunStatsD0Ev
00000000000081a0 0000000000000022 T _ZN5Catch15WildcardPatternD1Ev
00000000000081a0 0000000000000022 T _ZN5Catch15WildcardPatternD2Ev
00000000000081d0 0000000000000029 T _ZN5Catch15WildcardPatternD0Ev
0000000000008200 0000000000000032 T _ZN5Catch8TestSpec11NamePatternD1Ev
0000000000008200 0000000000000032 T _ZN5Catch8TestSpec11NamePatternD2Ev
0000000000008240 0000000000000034 T _ZN5Catch8TestSpec11NamePatternD0Ev
0000000000008280 0000000000000022 T _ZN5Catch8TestSpec10TagPatternD1Ev
0000000000008280 0000000000000022 T _ZN5Catch8TestSpec10TagPatternD2Ev
00000000000082b0 0000000000000029 T _ZN5Catch8TestSpec10TagPatternD0Ev
00000000000082e0 0000000000000055 W _ZN5Catch27ExceptionTranslatorRegistryD1Ev
00000000000082e0 0000000000000055 W _ZN5Catch27ExceptionTranslatorRegistryD2Ev
0000000000008340 000000000000000f W _ZNK5Catch5Clara6Detail15BoundDataMemberINS_10ConfigDataENSt7__cxx1112basic_stringIcSt11char_traitsIcESaIcEEEE3setERS3_RKS9_
0000000000008350 0000000000000098 W _ZNK5Catch5Clara6Detail19BoundBinaryFunctionINS_10ConfigDataERKNSt7__cxx1112basic_stringIcSt11char_traitsIcESaIcEEEE3setERS3_SB_
00000000000083f0 000000000000007c W _ZN5Catch15CompactReporter19noMatchingTestCasesERKNSt7__cxx1112basic_stringIcSt11char_traitsIcESaIcEEE
0000000000008470 000000000000007c W _ZN5Catch15ConsoleReporter19noMatchingTestCasesERKNSt7__cxx1112basic_stringIcSt11char_traitsIcESaIcEEE
00000000000084f0 000000000000002e W _ZN5Catch16TestCaseTracking11TrackerBase6parentEv
0000000000008520 00000000000000c4 W _ZN5Catch22CumulativeReporterBase12sectionEndedERKNS_12SectionStatsE
00000000000085f0 0000000000000029 T _ZN5Catch10CoutStreamD1Ev
00000000000085f0 0000000000000029 T _ZN5Catch10CoutStreamD2Ev
0000000000008620 0000000000000036 T _ZN5Catch10CoutStreamD0Ev
0000000000008660 0000000000000042 T _ZN5Catch14DebugOutStreamD1Ev
0000000000008660 0000000000000042 T _ZN5Catch14DebugOutStreamD2Ev
00000000000086b0 0000000000000012 T _ZN5Catch14DebugOutStreamD0Ev
00000000000086d0 0000000000000053 W _ZN5Catch11abortAfterXERNS_10ConfigDataEi
0000000000008730 0000000000000103 W _ZN5Catch10setRngSeedERNS_10ConfigDataERKNSt7__cxx1112basic_stringIcSt11char_traitsIcESaIcEEE
0000000000008840 0000000000000368 t _ZN4testL12_ntoa_formatEPcS0_mbjmjjj.part.2
0000000000008bb0 00000000000000cc t _ZN4testL10_ntoa_longEPcmbmmjjj
0000000000008c80 00000000000000cc t _ZN4testL15_ntoa_long_longEPcybymjjj
0000000000008d50 0000000000000d50 t _ZN4testL10_vsnprintfEPcmPKcP13__va_list_tag
0000000000009aa0 000000000000000a t _ZNK5Catch15AssertionResult4isOkEv.part.60
0000000000009ab0 000000000000007c t _ZN5Catch15CompactReporter16AssertionPrinter12printMessageEv.part.135
0000000000009b30 00000000000000c8 t _ZNSt7__cxx1112basic_stringIcSt11char_traitsIcESaIcEE12_M_constructIPKcEEvT_S8_St20forward_iterator_tag.isra.526
0000000000009b30 00000000000000c8 t _ZNSt7__cxx1112basic_stringIcSt11char_traitsIcESaIcEE12_M_constructIPcEEvT_S7_St20forward_iterator_tag.isra.495
0000000000009c00 0000000000000031 W _ZNK5Catch6Config4nameB5cxx11Ev
0000000000009c40 000000000000003c W _ZNK5Catch10RunContext18getCurrentTestNameB5cxx11Ev
0000000000009c80 00000000000000a3 W _ZN5Catch13StreamBufImplINS_17OutputDebugWriterELm256EE4syncEv
0000000000009d30 000000000000003e t _ZNSt7__cxx1112basic_stringIcSt11char_traitsIcESaIcEEC2EPKcRKS3_.isra.528
0000000000009d70 0000000000000129 W _ZNK5Catch27ExceptionTranslatorRegistry24translateActiveExceptionB5cxx11Ev
0000000000009ea0 0000000000000002 W _ZN5Catch15ConsoleReporter17assertionStartingERKNS_13AssertionInfoE
0000000000009eb0 0000000000000002 W _ZN5Catch15CompactReporter17assertionStartingERKNS_13AssertionInfoE
0000000000009ec0 0000000000000002 W _ZN5Catch21StreamingReporterBase19noMatchingTestCasesERKNSt7__cxx1112basic_stringIcSt11char_traitsIcESaIcEEE
0000000000009ed0 0000000000000002 W _ZN5Catch21StreamingReporterBase8skipTestERKNS_12TestCaseInfoE
0000000000009ee0 0000000000000002 W _ZN5Catch22CumulativeReporterBase15testRunStartingERKNS_11TestRunInfoE
0000000000009ef0 0000000000000002 W _ZN5Catch22CumulativeReporterBase17testGroupStartingERKNS_9GroupInfoE
0000000000009f00 0000000000000002 W _ZN5Catch22CumulativeReporterBase16testCaseStartingERKNS_12TestCaseInfoE
0000000000009f10 0000000000000002 W _ZN5Catch22CumulativeReporterBase17assertionStartingERKNS_13AssertionInfoE
0000000000009f20 0000000000000002 W _ZN5Catch22CumulativeReporterBase8skipTestERKNS_12TestCaseInfoE
0000000000009f30 0000000000000002 W _ZN5Catch11XmlReporter19noMatchingTestCasesERKNSt7__cxx1112basic_stringIcSt11char_traitsIcESaIcEEE
0000000000009f40 0000000000000002 W _ZN5Catch11XmlReporter17assertionStartingERKNS_13AssertionInfoE
0000000000009f50 0000000000000002 W _ZN5Catch13JunitReporter19noMatchingTestCasesERKNSt7__cxx1112basic_stringIcSt11char_traitsIcESaIcEEE
0000000000009f60 000000000000003c W _ZNK5Catch10RunContext8abortingEv
0000000000009fa0 000000000000003c W _ZThn8_NK5Catch10RunContext8abortingEv
0000000000009fe0 0000000000000002 t __tcf_3
0000000000009ff0 0000000000000054 W _ZN5Catch16TestCaseTracking11TrackerBase4failEv
000000000000a050 000000000000004d W _ZNK5Catch7Context9getConfigEv
000000000000a0a0 00000000000000d7 W _ZNK5Catch17ReporterRegistrarINS_15CompactReporterEE15ReporterFactory6createERKNS_14ReporterConfigE
000000000000a180 00000000000000ea W _ZNK5Catch17ReporterRegistrarINS_15ConsoleReporterEE15ReporterFactory6createERKNS_14ReporterConfigE
000000000000a270 000000000000003e W _ZNK5Catch16TestCaseTracking11TrackerBase6isOpenEv
000000000000a2b0 000000000000011c W _ZN5Catch16TestCaseTracking11TrackerBase5closeEv
000000000000a3d0 0000000000000032 W _ZNK5Catch10SharedImplINS_9ITestCaseEE7releaseEv
000000000000a410 0000000000000078 W _ZN5Catch17GeneratorsForTest8moveNextEv
000000000000a490 0000000000000057 W _ZN5Catch7Context9setConfigERKNS_3PtrIKNS_7IConfigEEE
000000000000a4f0 0000000000000059 W _ZN5Catch21StreamingReporterBase15testRunStartingERKNS_11TestRunInfoE
000000000000a550 0000000000000074 W _ZN5Catch21StreamingReporterBase17testGroupStartingERKNS_9GroupInfoE
000000000000a5d0 000000000000005a W _ZN5Catch27ExceptionTranslatorRegistryD0Ev
000000000000a630 000000000000008b W _ZN5Catch17MultipleReportersD1Ev
000000000000a630 000000000000008b W _ZN5Catch17MultipleReportersD2Ev
000000000000a6c0 0000000000000084 W _ZN5Catch17MultipleReportersD0Ev
000000000000a750 00000000000000bd T _ZN5Catch10FileStreamD1Ev
000000000000a750 00000000000000bd T _ZN5Catch10FileStreamD2Ev
000000000000a810 00000000000000c5 T _ZN5Catch10FileStreamD0Ev
000000000000a8e0 0000000000000082 W _ZN5Catch16TestCaseTracking11TrackerBase9openChildEv
000000000000a970 00000000000000e5 W _ZN5Catch13StreamBufImplINS_17OutputDebugWriterELm256EED0Ev
000000000000aa60 00000000000000dd W _ZN5Catch13StreamBufImplINS_17OutputDebugWriterELm256EED1Ev
000000000000aa60 00000000000000dd W _ZN5Catch13StreamBufImplINS_17OutputDebugWriterELm256EED2Ev
000000000000ab40 00000000000000ac W _ZN5Catch22CumulativeReporterBase4NodeINS_14TestGroupStatsENS1_INS_13TestCaseStatsENS0_11SectionNodeEEEED0Ev
000000000000abf0 00000000000000a4 W _ZN5Catch22CumulativeReporterBase4NodeINS_12TestRunStatsENS1_INS_14TestGroupStatsENS1_INS_13TestCaseStatsENS0_11SectionNodeEEEEEED0Ev
000000000000aca0 000000000000009b T _ZN5Catch16TestCaseTracking11TrackerBaseD1Ev
000000000000aca0 000000000000009b T _ZN5Catch16TestCaseTracking11TrackerBaseD2Ev
000000000000ad40 0000000000000012 T _ZN5Catch16TestCaseTracking11TrackerBaseD0Ev
000000000000ad60 000000000000003a T _ZN5Catch12SectionStatsD1Ev
000000000000ad60 000000000000003a T _ZN5Catch12SectionStatsD2Ev
000000000000ada0 00000000000000a3 W _ZN5Catch22CumulativeReporterBase4NodeINS_12TestRunStatsENS1_INS_14TestGroupStatsENS1_INS_13TestCaseStatsENS0_11SectionNodeEEEEEED1Ev
000000000000ada0 00000000000000a3 W _ZN5Catch22CumulativeReporterBase4NodeINS_12TestRunStatsENS1_INS_14TestGroupStatsENS1_INS_13TestCaseStatsENS0_11SectionNodeEEEEEED2Ev
000000000000ae50 00000000000000b3 W _ZN5Catch22CumulativeReporterBase4NodeINS_14TestGroupStatsENS1_INS_13TestCaseStatsENS0_11SectionNodeEEEED1Ev
000000000000ae50 00000000000000b3 W _ZN5Catch22CumulativeReporterBase4NodeINS_14TestGroupStatsENS1_INS_13TestCaseStatsENS0_11SectionNodeEEEED2Ev
000000000000af10 0000000000000020 W _ZNK5Catch17ReporterRegistrarINS_15ConsoleReporterEE15ReporterFactory14getDescriptionB5cxx11Ev
000000000000af30 0000000000000020 W _ZNK5Catch17ReporterRegistrarINS_13JunitReporterEE15ReporterFactory14getDescriptionB5cxx11Ev
000000000000af50 0000000000000020 W _ZNK5Catch17ReporterRegistrarINS_15CompactReporterEE15ReporterFactory14getDescriptionB5cxx11Ev
000000000000af70 0000000000000020 W _ZNK5Catch17ReporterRegistrarINS_11XmlReporterEE15ReporterFactory14getDescriptionB5cxx11Ev
000000000000af90 000000000000004f W _ZN5Catch21StreamingReporterBase12sectionEndedERKNS_12SectionStatsE
000000000000afe0 000000000000003b T _ZN5Catch12SectionStatsD0Ev
000000000000b020 00000000000000d1 W _ZNK5Catch8TestSpec10TagPattern7matchesERKNS_12TestCaseInfoE
000000000000b100 0000000000000143 W _ZN5Catch13StreamBufImplINS_17OutputDebugWriterELm256EE8overflowEi
000000000000b250 000000000000028f W _ZN5Catch7Context31advanceGeneratorsForCurrentTestEv
000000000000b4e0 000000000000003a T _ZN5Catch13ResultBuilderD1Ev
000000000000b4e0 000000000000003a T _ZN5Catch13ResultBuilderD2Ev
000000000000b520 00000000000000fa T _ZNK5Catch16TagAliasRegistry4findERKNSt7__cxx1112basic_stringIcSt11char_traitsIcESaIcEEE
000000000000b620 00000000000000e3 T _ZN5Catch14AssertionStatsD1Ev
000000000000b620 00000000000000e3 T _ZN5Catch14AssertionStatsD2Ev
000000000000b710 000000000000003b T _ZN5Catch13ResultBuilderD0Ev
000000000000b750 000000000000009c t __tcf_0
000000000000b7f0 000000000000016b T _ZN5Catch22CumulativeReporterBase11SectionNodeD1Ev
000000000000b7f0 000000000000016b T _ZN5Catch22CumulativeReporterBase11SectionNodeD2Ev
000000000000b960 0000000000000012 T _ZN5Catch22CumulativeReporterBase11SectionNodeD0Ev
000000000000b980 00000000000000e0 t _ZN5Catch12_GLOBAL__N_120getFormattedDurationEd
000000000000ba60 00000000000000f9 W _ZN5Catch15CompactReporter12sectionEndedERKNS_12SectionStatsE
000000000000bb60 00000000000000de T _ZN5Catch14AssertionStatsD0Ev
000000000000bc40 0000000000000069 t _ZN5Catch12_GLOBAL__N_115PosixColourImpl9setColourEPKc.isra.59
000000000000bcb0 000000000000011d t _ZN5Catch12_GLOBAL__N_115PosixColourImpl3useENS_6Colour4CodeE
000000000000bdd0 000000000000055f W _ZN5Catch10RunContext16popScopedMessageERKNS_11MessageInfoE
000000000000c330 000000000000019f W _ZNK5Catch16ReporterRegistry6createERKNSt7__cxx1112basic_stringIcSt11char_traitsIcESaIcEEERKNS_3PtrIKNS_7IConfigEEE
000000000000c4d0 0000000000000058 T _ZN5Catch16TestCaseTracking14SectionTrackerD1Ev
000000000000c4d0 0000000000000058 T _ZN5Catch16TestCaseTracking14SectionTrackerD2Ev
000000000000c530 0000000000000060 T _ZN5Catch16TestCaseTracking14SectionTrackerD0Ev
000000000000c590 0000000000000174 W _ZN5Catch13JunitReporter17testGroupStartingERKNS_9GroupInfoE
000000000000c710 0000000000000106 W _ZNK5Catch13ExpressionLhsIbE21reconstructExpressionERNSt7__cxx1112basic_stringIcSt11char_traitsIcESaIcEEE
000000000000c820 000000000000003a T _ZN5Catch8TestSpec15ExcludedPatternD1Ev
000000000000c820 000000000000003a T _ZN5Catch8TestSpec15ExcludedPatternD2Ev
000000000000c860 000000000000005b T _ZN5Catch8TestSpec15ExcludedPatternD0Ev
000000000000c8c0 0000000000000098 W _ZNK5Catch19AssertionResultData21reconstructExpressionB5cxx11Ev
000000000000c960 0000000000000045 W _ZNK5Catch22CumulativeReporterBase25prepareExpandedExpressionERNS_15AssertionResultE
000000000000c9b0 0000000000000032 W _ZN5Catch11MessageInfoD1Ev
000000000000c9b0 0000000000000032 W _ZN5Catch11MessageInfoD2Ev
000000000000c9f0 0000000000000062 W _ZN5Catch11SectionInfoC1ERKS0_
000000000000c9f0 0000000000000062 W _ZN5Catch11SectionInfoC2ERKS0_
000000000000ca60 0000000000000032 W _ZN5Catch11SectionInfoD1Ev
000000000000ca60 0000000000000032 W _ZN5Catch11SectionInfoD2Ev
000000000000caa0 000000000000028d W _ZN5Catch10RunContext12sectionEndedERKNS_14SectionEndInfoE
000000000000cd30 000000000000006c W _ZN5Catch3TbclsERSoRKNS0_4TextE
000000000000cda0 000000000000007b W _ZN5Catch19AssertionResultDataC1ERKS0_
000000000000cda0 000000000000007b W _ZN5Catch19AssertionResultDataC2ERKS0_
000000000000ce20 0000000000000032 W _ZN5Catch19AssertionResultDataD1Ev
000000000000ce20 0000000000000032 W _ZN5Catch19AssertionResultDataD2Ev
000000000000ce60 0000000000000065 W _ZN5Catch3Tbc4TextD1Ev
000000000000ce60 0000000000000065 W _ZN5Catch3Tbc4TextD2Ev
000000000000ced0 00000000000000b9 W _ZN5Catch14StreamRedirectD1Ev
000000000000ced0 00000000000000b9 W _ZN5Catch14StreamRedirectD2Ev
000000000000cf90 00000000000001ef W _ZN5Catch10RunContext14testGroupEndedERKNSt7__cxx1112basic_stringIcSt11char_traitsIcESaIcEEERKNS_6TotalsEmm
000000000000d180 00000000000000b7 T _ZN5Catch9matchTestERKNS_8TestCaseERKNS_8TestSpecERKNS_7IConfigE
000000000000d240 000000000000004c W _ZNSt4pairINSt7__cxx1112basic_stringIcSt11char_traitsIcESaIcEEEN5Catch3PtrINS6_16IReporterFactoryEEEED1Ev
000000000000d240 000000000000004c W _ZNSt4pairINSt7__cxx1112basic_stringIcSt11char_traitsIcESaIcEEEN5Catch3PtrINS6_16IReporterFactoryEEEED2Ev
000000000000d290 000000000000038e t _ZN5Catch12_GLOBAL__N_111RegistryHub16registerReporterERKNSt7__cxx1112basic_stringIcSt11char_traitsIcESaIcEEERKNS_3PtrINS_16IReporterFactoryEEE
000000000000d620 000000000000038e t _ZThn8_N5Catch12_GLOBAL__N_111RegistryHub16registerReporterERKNSt7__cxx1112basic_stringIcSt11char_traitsIcESaIcEEERKNS_3PtrINS_16IReporterFactoryEEE
000000000000d9b0 0000000000000282 T _ZN5Catch10FileStreamC1ERKNSt7__cxx1112basic_stringIcSt11char_traitsIcESaIcEEE
000000000000d9b0 0000000000000282 T _ZN5Catch10FileStreamC2ERKNSt7__cxx1112basic_stringIcSt11char_traitsIcESaIcEEE
000000000000dc40 0000000000000127 T _ZN5Catch14DebugOutStreamC1Ev
000000000000dc40 0000000000000127 T _ZN5Catch14DebugOutStreamC2Ev
000000000000dd70 000000000000006f T _ZN5Catch24getCurrentMutableContextEv
000000000000dde0 000000000000007c T _ZN5Catch16getResultCaptureEv
000000000000de60 000000000000016f W _ZN5Catch21FatalConditionHandler12handleSignalEi
000000000000dfd0 000000000000005c T _ZN5Catch23createGeneratorsForTestEv
000000000000e030 00000000000000bc T _ZNK5Catch15AssertionResult21getExpandedExpressionB5cxx11Ev
000000000000e0f0 00000000000000c6 W _ZN5Catch15parseSpecialTagERKNSt7__cxx1112basic_stringIcSt11char_traitsIcESaIcEEE
000000000000e1c0 000000000000011c T _ZN5CatchlsERSoRKNS_7VersionE
000000000000e2e0 000000000000005d T _ZN5Catch11MessageInfoC1ERKNSt7__cxx1112basic_stringIcSt11char_traitsIcESaIcEEERKNS_14SourceLineInfoENS_9ResultWas6OfTypeE
000000000000e2e0 000000000000005d T _ZN5Catch11MessageInfoC2ERKNSt7__cxx1112basic_stringIcSt11char_traitsIcESaIcEEERKNS_14SourceLineInfoENS_9ResultWas6OfTypeE
000000000000e340 000000000000005d T _ZNK5Catch5Timer17getElapsedSecondsEv
000000000000e3a0 000000000000003a T _ZN5Catch10startsWithERKNSt7__cxx1112basic_stringIcSt11char_traitsIcESaIcEEES7_
000000000000e3e0 0000000000000033 T _ZN5Catch14toLowerInPlaceERNSt7__cxx1112basic_stringIcSt11char_traitsIcESaIcEEE
000000000000e420 000000000000002a T _ZN5Catch7toLowerERKNSt7__cxx1112basic_stringIcSt11char_traitsIcESaIcEEE
000000000000e450 000000000000010d W _ZN5Catch12setUseColourERNS_10ConfigDataERKNSt7__cxx1112basic_stringIcSt11char_traitsIcESaIcEEE
000000000000e560 00000000000000ac T _ZN5Catch4trimERKNSt7__cxx1112basic_stringIcSt11char_traitsIcESaIcEEE
000000000000e610 0000000000000087 T _ZN5CatchlsERSoRKNS_9pluraliseE
000000000000e6a0 0000000000000033 T _ZNK5Catch14SourceLineInfoeqERKS0_
000000000000e6e0 0000000000000096 W _ZN5Catch16TestCaseTracking11TrackerBase14TrackerHasNameclERKNS_3PtrINS0_8ITrackerEEE
000000000000e780 0000000000000061 T _ZN5Catch7seedRngERKNS_7IConfigE
000000000000e7f0 000000000000009c T _ZN5CatchlsERSoRKNS_14SourceLineInfoE
000000000000e890 0000000000000075 T _ZN5Catch11SectionInfoC1ERKNS_14SourceLineInfoERKNSt7__cxx1112basic_stringIcSt11char_traitsIcESaIcEEESB_
000000000000e890 0000000000000075 T _ZN5Catch11SectionInfoC2ERKNS_14SourceLineInfoERKNSt7__cxx1112basic_stringIcSt11char_traitsIcESaIcEEESB_
000000000000e910 000000000000039a T _ZN5Catch16isDebuggerActiveEv
000000000000ecb0 00000000000001c5 T _ZN5Catch6Colour3useENS0_4CodeE
000000000000ee80 00000000000000a4 t _ZNK5Catch15CompactReporter16AssertionPrinter15printResultTypeENS_6Colour4CodeERKNSt7__cxx1112basic_stringIcSt11char_traitsIcESaIcEEE.isra.356
000000000000ef30 00000000000000e2 T _ZN5Catch8toStringB5cxx11Ei
000000000000f020 0000000000000251 W _ZNK5Catch16BinaryExpressionIRKiLNS_8Internal8OperatorE0ES2_E21reconstructExpressionERNSt7__cxx1112basic_stringIcSt11char_traitsIcESaIcEEE
000000000000f280 0000000000000194 T _ZN5Catch13ResultBuilderC1EPKcRKNS_14SourceLineInfoES2_NS_17ResultDisposition5FlagsES2_
000000000000f280 0000000000000194 T _ZN5Catch13ResultBuilderC2EPKcRKNS_14SourceLineInfoES2_NS_17ResultDisposition5FlagsES2_
000000000000f420 000000000000016d T _ZN5Catch13ResultBuilder12handleResultERKNS_15AssertionResultE
000000000000f590 0000000000000261 T _ZNK5Catch13ResultBuilder5buildERKNS_20DecomposedExpressionE
000000000000f800 0000000000000097 T _ZN5Catch13ResultBuilder13endExpressionERKNS_20DecomposedExpressionE
000000000000f8a0 0000000000000097 T _ZN5Catch13ResultBuilder17captureExpressionEv
000000000000f940 00000000000002a7 W _ZNK5Catch9XmlEncode8encodeToERSo
000000000000fbf0 0000000000000127 W _ZN5Catch9XmlWriter10endElementEv
000000000000fd20 000000000000000c W _ZN5Catch13JunitReporter22testRunEndedCumulativeEv
000000000000fd30 000000000000011c W _ZN5Catch9XmlWriter14writeAttributeERKNSt7__cxx1112basic_stringIcSt11char_traitsIcESaIcEEES8_
000000000000fe50 00000000000000fd W _ZN5Catch9XmlWriter9writeTextERKNSt7__cxx1112basic_stringIcSt11char_traitsIcESaIcEEEb
000000000000ff50 000000000000029e W _ZN5Catch15ConsoleReporter16lazyPrintRunInfoEv
00000000000101f0 0000000000000065 W _ZN5Catch15ConsoleReporter13SummaryColumnD1Ev
00000000000101f0 0000000000000065 W _ZN5Catch15ConsoleReporter13SummaryColumnD2Ev
0000000000010260 0000000000000223 W _ZN5Catch15ConsoleReporter15printSummaryRowERKNSt7__cxx1112basic_stringIcSt11char_traitsIcESaIcEEERKSt6vectorINS0_13SummaryColumnESaISA_EEm
0000000000010490 00000000000003aa W _ZN5Catch15ConsoleReporter18printTotalsDividerERKNS_6TotalsE
0000000000010840 00000000000001fb W _ZN5Catch15CompactReporter16AssertionPrinter22printRemainingMessagesENS_6Colour4CodeE
0000000000010a40 00000000000009dd W _ZNK5Catch15CompactReporter11printTotalsERKNS_6TotalsE
0000000000011420 000000000000032f T _ZN5Catch22CumulativeReporterBaseD1Ev
0000000000011420 000000000000032f T _ZN5Catch22CumulativeReporterBaseD2Ev
0000000000011750 00000000000000ea T printf
0000000000011840 00000000000000bb T sprintf
0000000000011900 00000000000000ac T snprintf
00000000000119b0 00000000000000ab W _ZStplIcSt11char_traitsIcESaIcEENSt7__cxx1112basic_stringIT_T0_T1_EEOS8_S9_
0000000000011a60 000000000000032b T _ZNK5Catch16TagAliasRegistry13expandAliasesERKNSt7__cxx1112basic_stringIcSt11char_traitsIcESaIcEEE
0000000000011d90 0000000000000034 W _ZNSt7__cxx1115basic_stringbufIcSt11char_traitsIcESaIcEED1Ev
0000000000011d90 0000000000000034 W _ZNSt7__cxx1115basic_stringbufIcSt11char_traitsIcESaIcEED2Ev
0000000000011dd0 000000000000003c W _ZNSt7__cxx1115basic_stringbufIcSt11char_traitsIcESaIcEED0Ev
0000000000011e10 0000000000000033 W _ZSteqIcEN9__gnu_cxx11__enable_ifIXsrSt9__is_charIT_E7__valueEbE6__typeERKNSt7__cxx1112basic_stringIS3_St11char_traitsIS3_ESaIS3_EEESE_
0000000000011e50 000000000000023c W _ZNK5Catch15WildcardPattern7matchesERKNSt7__cxx1112basic_stringIcSt11char_traitsIcESaIcEEE
0000000000012090 0000000000000088 W _ZNK5Catch8TestSpec11NamePattern7matchesERKNS_12TestCaseInfoE
0000000000012120 000000000000007b W _ZNSt6vectorIN5Catch3PtrINS0_8TestSpec7PatternEEESaIS4_EED1Ev
0000000000012120 000000000000007b W _ZNSt6vectorIN5Catch3PtrINS0_8TestSpec7PatternEEESaIS4_EED2Ev
00000000000121a0 00000000000000d7 W _ZNSt6vectorIN5Catch8TestSpec6FilterESaIS2_EED1Ev
00000000000121a0 00000000000000d7 W _ZNSt6vectorIN5Catch8TestSpec6FilterESaIS2_EED2Ev
0000000000012280 00000000000000ab W _ZN5Catch14TestSpecParserD1Ev
0000000000012280 00000000000000ab W _ZN5Catch14TestSpecParserD2Ev
0000000000012330 0000000000000155 W _ZN5Catch6ConfigD1Ev
0000000000012330 0000000000000155 W _ZN5Catch6ConfigD2Ev
0000000000012490 0000000000000153 W _ZN5Catch6ConfigD0Ev
00000000000125f0 0000000000000240 W _ZNSt6vectorIN5Catch8TestSpec6FilterESaIS2_EEC1ERKS4_
00000000000125f0 0000000000000240 W _ZNSt6vectorIN5Catch8TestSpec6FilterESaIS2_EEC2ERKS4_
0000000000012830 0000000000000055 W _ZNSt6vectorINSt7__cxx1112basic_stringIcSt11char_traitsIcESaIcEEESaIS5_EED1Ev
0000000000012830 0000000000000055 W _ZNSt6vectorINSt7__cxx1112basic_stringIcSt11char_traitsIcESaIcEEESaIS5_EED2Ev
0000000000012890 0000000000000062 W _ZN5Catch10ConfigDataD1Ev
0000000000012890 0000000000000062 W _ZN5Catch10ConfigDataD2Ev
0000000000012900 0000000000000289 W _ZNK5Catch17ReporterRegistrarINS_13JunitReporterEE15ReporterFactory6createERKNS_14ReporterConfigE
0000000000012b90 00000000000001ec T _ZN5Catch13JunitReporterD1Ev
0000000000012b90 00000000000001ec T _ZN5Catch13JunitReporterD2Ev
0000000000012d80 0000000000000012 T _ZN5Catch13JunitReporterD0Ev
0000000000012da0 00000000000000c2 W _ZNK5Catch10SharedImplINS_7IConfigEE7releaseEv
0000000000012e70 0000000000000107 W _ZNSt6vectorINSt7__cxx1112basic_stringIcSt11char_traitsIcESaIcEEESaIS5_EEC1ERKS7_
0000000000012e70 0000000000000107 W _ZNSt6vectorINSt7__cxx1112basic_stringIcSt11char_traitsIcESaIcEEESaIS5_EEC2ERKS7_
0000000000012f80 00000000000000a1 W _ZStplIcSt11char_traitsIcESaIcEENSt7__cxx1112basic_stringIT_T0_T1_EEPKS5_RKS8_
0000000000013030 000000000000008f W _ZStplIcSt11char_traitsIcESaIcEENSt7__cxx1112basic_stringIT_T0_T1_EEOS8_PKS5_
00000000000130c0 0000000000000259 W _ZN5Catch5Clara6Detail11convertIntoERKNSt7__cxx1112basic_stringIcSt11char_traitsIcESaIcEEERb
0000000000013320 0000000000000050 W _ZNK5Catch5Clara6Detail19BoundBinaryFunctionINS_10ConfigDataEbE3setERS3_RKNSt7__cxx1112basic_stringIcSt11char_traitsIcESaIcEEE
0000000000013370 0000000000000052 W _ZNK5Catch5Clara6Detail18BoundUnaryFunctionINS_10ConfigDataEE3setERS3_RKNSt7__cxx1112basic_stringIcSt11char_traitsIcESaIcEEE
00000000000133d0 000000000000000c W _ZNK5Catch5Clara6Detail15BoundDataMemberINS_10ConfigDataEbE3setERS3_RKNSt7__cxx1112basic_stringIcSt11char_traitsIcESaIcEEE
00000000000133e0 00000000000000fc T _ZN5Catch36capturedExpressionWithSecondArgumentB5cxx11EPKcS1_
00000000000134e0 00000000000000ed T _ZNK5Catch15AssertionResult13getExpressionB5cxx11Ev
00000000000135d0 00000000000000b4 t _ZNK5Catch15CompactReporter16AssertionPrinter23printOriginalExpressionEv.isra.530
0000000000013690 00000000000000f4 T _ZNK5Catch15AssertionResult21hasExpandedExpressionEv
0000000000013790 00000000000000d8 W _ZNK5Catch15CompactReporter16AssertionPrinter28printReconstructedExpressionEv
0000000000013870 000000000000011c W _ZN5Catch15CompactReporter16AssertionPrinter18printExpressionWasEv
0000000000013990 000000000000067f W _ZN5Catch15CompactReporter16AssertionPrinter5printEv
0000000000014010 00000000000000e6 T _ZNK5Catch13ResultBuilder21reconstructExpressionERNSt7__cxx1112basic_stringIcSt11char_traitsIcESaIcEEE
0000000000014100 000000000000017c T _ZNK5Catch15AssertionResult20getExpressionInMacroB5cxx11Ev
0000000000014280 0000000000000063 W _ZStplIcSt11char_traitsIcESaIcEENSt7__cxx1112basic_stringIT_T0_T1_EEOS8_S5_
00000000000142f0 0000000000000120 W _ZN5Catch10addWarningERNS_10ConfigDataERKNSt7__cxx1112basic_stringIcSt11char_traitsIcESaIcEEE
0000000000014410 00000000000001d4 W _ZN5Catch8setOrderERNS_10ConfigDataERKNSt7__cxx1112basic_stringIcSt11char_traitsIcESaIcEEE
00000000000145f0 0000000000000080 W _ZStplIcSt11char_traitsIcESaIcEENSt7__cxx1112basic_stringIT_T0_T1_EES5_RKS8_
0000000000014670 0000000000000052 W _ZN5Catch5Clara19CommonArgPropertiesINS_10ConfigDataEED1Ev
0000000000014670 0000000000000052 W _ZN5Catch5Clara19CommonArgPropertiesINS_10ConfigDataEED2Ev
00000000000146d0 0000000000000065 W _ZN5Catch5Clara19OptionArgPropertiesD1Ev
00000000000146d0 0000000000000065 W _ZN5Catch5Clara19OptionArgPropertiesD2Ev
0000000000014740 000000000000006b W _ZN5Catch5Clara11CommandLineINS_10ConfigDataEE10ArgBuilder4bindIS2_EEvMT_b
00000000000147b0 0000000000000083 W _ZN5Catch5Clara11CommandLineINS_10ConfigDataEE10ArgBuilder4bindIS2_NSt7__cxx1112basic_stringIcSt11char_traitsIcESaIcEEEEEvMT_T0_RKSB_
0000000000014840 0000000000000083 W _ZN5Catch5Clara11CommandLineINS_10ConfigDataEE10ArgBuilder4bindIS2_RKNSt7__cxx1112basic_stringIcSt11char_traitsIcESaIcEEEEEvPFvRT_T0_ESD_
00000000000148d0 000000000000006b W _ZN5Catch5Clara11CommandLineINS_10ConfigDataEE10ArgBuilder4bindIS2_EEvPFvRT_E
0000000000014940 000000000000005b W _ZStplIcSt11char_traitsIcESaIcEENSt7__cxx1112basic_stringIT_T0_T1_EEOS8_RKS8_
00000000000149a0 0000000000000159 W _ZNSt6vectorIN5Catch11MessageInfoESaIS1_EEC1ERKS3_
00000000000149a0 0000000000000159 W _ZNSt6vectorIN5Catch11MessageInfoESaIS1_EEC2ERKS3_
0000000000014b00 00000000000000ab W _ZNSt6vectorIN5Catch11MessageInfoESaIS1_EED1Ev
0000000000014b00 00000000000000ab W _ZNSt6vectorIN5Catch11MessageInfoESaIS1_EED2Ev
0000000000014bb0 0000000000000192 W _ZN5Catch15CompactReporter14assertionEndedERKNS_14AssertionStatsE
0000000000014d50 00000000000000bb W _ZNSt6vectorIN5Catch14SectionEndInfoESaIS1_EED1Ev
0000000000014d50 00000000000000bb W _ZNSt6vectorIN5Catch14SectionEndInfoESaIS1_EED2Ev
0000000000014e10 0000000000000374 W _ZN5Catch10RunContextD1Ev
0000000000014e10 0000000000000374 W _ZN5Catch10RunContextD2Ev
0000000000015190 0000000000000009 W _ZThn8_N5Catch10RunContextD1Ev
00000000000151a0 0000000000000012 W _ZN5Catch10RunContextD0Ev
00000000000151c0 0000000000000016 W _ZThn8_N5Catch10RunContextD0Ev
00000000000151e0 000000000000008c W _ZN5Catch3PtrINS_18IStreamingReporterEEaSERKS2_
0000000000015270 000000000000007a W _ZNSt6vectorIN5Catch5Clara6Parser5TokenESaIS3_EED1Ev
0000000000015270 000000000000007a W _ZNSt6vectorIN5Catch5Clara6Parser5TokenESaIS3_EED2Ev
00000000000152f0 0000000000000144 W _ZN5Catch10fpToStringIdEENSt7__cxx1112basic_stringIcSt11char_traitsIcESaIcEEET_i
0000000000015440 000000000000014c W _ZN5Catch9XmlWriter14writeAttributeImEERS0_RKNSt7__cxx1112basic_stringIcSt11char_traitsIcESaIcEEERKT_
0000000000015590 000000000000017d W _ZN5Catch11XmlReporter15writeSourceInfoERKNS_14SourceLineInfoE
0000000000015710 0000000000000156 W _ZN5Catch9XmlWriter14writeAttributeIA4_cEERS0_RKNSt7__cxx1112basic_stringIcSt11char_traitsIcESaIcEEERKT_
0000000000015870 000000000000014d W _ZN5Catch9XmlWriter14writeAttributeIdEERS0_RKNSt7__cxx1112basic_stringIcSt11char_traitsIcESaIcEEERKT_
00000000000159c0 000000000000012e W _ZNSt6vectorImSaImEE17_M_realloc_insertIJRKmEEEvN9__gnu_cxx17__normal_iteratorIPmS1_EEDpOT_
0000000000015af0 0000000000000436 W _ZNSt6vectorIN5Catch8TestSpec6FilterESaIS2_EE17_M_realloc_insertIJRKS2_EEEvN9__gnu_cxx17__normal_iteratorIPS2_S4_EEDpOT_
0000000000015f30 00000000000001e3 t _ZN5Catch14TestSpecParser9addFilterEv.part.869
0000000000016120 00000000000002c8 W _ZNSt6vectorINSt7__cxx1112basic_stringIcSt11char_traitsIcESaIcEEESaIS5_EE12emplace_backIJS5_EEEvDpOT_
00000000000163f0 00000000000008c6 W _ZN5Catch3Tbc4TextC1ERKNSt7__cxx1112basic_stringIcSt11char_traitsIcESaIcEEERKNS0_14TextAttributesE
00000000000163f0 00000000000008c6 W _ZN5Catch3Tbc4TextC2ERKNSt7__cxx1112basic_stringIcSt11char_traitsIcESaIcEEERKNS0_14TextAttributesE
0000000000016cc0 000000000000023a W _ZN5Catch15ConsoleReporter15printOpenHeaderERKNSt7__cxx1112basic_stringIcSt11char_traitsIcESaIcEEE
0000000000016f00 0000000000001367 W _ZN5Catch15ConsoleReporter14assertionEndedERKNS_14AssertionStatsE
0000000000018270 00000000000005c8 W _ZN5Catch15ConsoleReporter29printTestCaseAndSectionHeaderEv
0000000000018840 000000000000031b W _ZN5Catch15ConsoleReporter12sectionEndedERKNS_12SectionStatsE
0000000000018b60 0000000000000155 W _ZN3Tbc4Text10spliceLineEmRNSt7__cxx1112basic_stringIcSt11char_traitsIcESaIcEEEm
0000000000018cc0 000000000000054e W _ZN3Tbc4TextC1ERKNSt7__cxx1112basic_stringIcSt11char_traitsIcESaIcEEERKNS_14TextAttributesE
0000000000018cc0 000000000000054e W _ZN3Tbc4TextC2ERKNSt7__cxx1112basic_stringIcSt11char_traitsIcESaIcEEERKNS_14TextAttributesE
0000000000019210 000000000000028a W _ZNSt6vectorINSt7__cxx1112basic_stringIcSt11char_traitsIcESaIcEEESaIS5_EE17_M_realloc_insertIJRKS5_EEEvN9__gnu_cxx17__normal_iteratorIPS5_S7_EEDpOT_
00000000000194a0 0000000000000369 W _ZN5Catch15ConsoleReporter13SummaryColumn6addRowEm
0000000000019810 0000000000000062 W _ZN5Catch15addReporterNameERNS_10ConfigDataERKNSt7__cxx1112basic_stringIcSt11char_traitsIcESaIcEEE
0000000000019880 0000000000000062 W _ZN5Catch13addTestOrTagsERNS_10ConfigDataERKNSt7__cxx1112basic_stringIcSt11char_traitsIcESaIcEEE
00000000000198f0 0000000000000062 W _ZN5Catch15addSectionToRunERNS_10ConfigDataERKNSt7__cxx1112basic_stringIcSt11char_traitsIcESaIcEEE
0000000000019960 0000000000000158 W _ZN5Catch9XmlWriter12startElementERKNSt7__cxx1112basic_stringIcSt11char_traitsIcESaIcEEE
0000000000019ac0 0000000000000039 W _ZN5Catch9XmlWriter13scopedElementERKNSt7__cxx1112basic_stringIcSt11char_traitsIcESaIcEEE
0000000000019b00 0000000000000443 W _ZN5Catch13JunitReporter14writeAssertionERKNS_14AssertionStatsE
0000000000019f50 00000000000005da W _ZN5Catch13JunitReporter12writeSectionERKNSt7__cxx1112basic_stringIcSt11char_traitsIcESaIcEEES8_RKNS_22CumulativeReporterBase11SectionNodeE
000000000001a530 00000000000007b3 W _ZN5Catch13JunitReporter10writeGroupERKNS_22CumulativeReporterBase4NodeINS_14TestGroupStatsENS2_INS_13TestCaseStatsENS1_11SectionNodeEEEEEd
000000000001acf0 00000000000008b9 W _ZN5Catch11XmlReporter14assertionEndedERKNS_14AssertionStatsE
000000000001b5b0 0000000000000161 W _ZN5Catch11XmlReporter17testGroupStartingERKNS_9GroupInfoE
000000000001b720 0000000000000091 W _ZN5Catch13JunitReporter15testRunStartingERKNS_11TestRunInfoE
000000000001b7c0 000000000000030c W _ZN5Catch11XmlReporter15testRunStartingERKNS_11TestRunInfoE
000000000001bad0 00000000000001f3 W _ZN5Catch11XmlReporter14testGroupEndedERKNS_14TestGroupStatsE
000000000001bcd0 0000000000000205 W _ZN5Catch11XmlReporter12sectionEndedERKNS_12SectionStatsE
000000000001bee0 000000000000066c W _ZN5Catch21loadTestNamesFromFileERNS_10ConfigDataERKNSt7__cxx1112basic_stringIcSt11char_traitsIcESaIcEEE
000000000001c550 00000000000000f2 W _ZNSt8_Rb_treeIiSt4pairIKiN5Catch5Clara11CommandLineINS2_10ConfigDataEE3ArgEESt10_Select1stIS8_ESt4lessIiESaIS8_EE8_M_eraseEPSt13_Rb_tree_nodeIS8_E
000000000001c650 000000000000019f W _ZN5Catch5Clara11CommandLineINS_10ConfigDataEED1Ev
000000000001c650 000000000000019f W _ZN5Catch5Clara11CommandLineINS_10ConfigDataEED2Ev
000000000001c7f0 000000000000003a W _ZN5Catch5Clara6Detail16BoundArgFunctionINS_10ConfigDataEEaSERKS4_
000000000001c830 00000000000004f0 W _ZN5Catch5Clara10addOptNameERNS0_11CommandLineINS_10ConfigDataEE3ArgERKNSt7__cxx1112basic_stringIcSt11char_traitsIcESaIcEEE
000000000001cd20 000000000000045c W _ZNSt6vectorIN5Catch11MessageInfoESaIS1_EE17_M_realloc_insertIJRKS1_EEEvN9__gnu_cxx17__normal_iteratorIPS1_S3_EEDpOT_
000000000001d180 000000000000073a W _ZN5Catch10RunContext14assertionEndedERKNS_15AssertionResultE
000000000001d8c0 00000000000000cc W _ZN5Catch10RunContext17pushScopedMessageERKNS_11MessageInfoE
000000000001d990 0000000000000052 W _ZNSt8_Rb_treeINSt7__cxx1112basic_stringIcSt11char_traitsIcESaIcEEES5_St9_IdentityIS5_ESt4lessIS5_ESaIS5_EE8_M_eraseEPSt13_Rb_tree_nodeIS5_E
000000000001d9f0 000000000000007a W _ZN5Catch12TestCaseInfoD1Ev
000000000001d9f0 000000000000007a W _ZN5Catch12TestCaseInfoD2Ev
000000000001da70 0000000000000078 W _ZN5Catch21StreamingReporterBase12testRunEndedERKNS_12TestRunStatsE
000000000001daf0 0000000000000029 W _ZN5Catch21StreamingReporterBase13testCaseEndedERKNS_13TestCaseStatsE
000000000001db20 0000000000000030 W _ZN5Catch15ConsoleReporter13testCaseEndedERKNS_13TestCaseStatsE
000000000001db50 000000000000011b T _ZN5Catch21StreamingReporterBaseD1Ev
000000000001db50 000000000000011b T _ZN5Catch21StreamingReporterBaseD2Ev
000000000001dc70 0000000000000184 W _ZNK5Catch17ReporterRegistrarINS_11XmlReporterEE15ReporterFactory6createERKNS_14ReporterConfigE
000000000001de00 000000000000000f T _ZN5Catch15ConsoleReporterD1Ev
000000000001de00 000000000000000f T _ZN5Catch15ConsoleReporterD2Ev
000000000001de10 000000000000001c T _ZN5Catch15ConsoleReporterD0Ev
000000000001de30 000000000000000f T _ZN5Catch15CompactReporterD1Ev
000000000001de30 000000000000000f T _ZN5Catch15CompactReporterD2Ev
000000000001de40 000000000000001c T _ZN5Catch15CompactReporterD0Ev
000000000001de60 00000000000000d1 T _ZN5Catch11XmlReporterD1Ev
000000000001de60 00000000000000d1 T _ZN5Catch11XmlReporterD2Ev
000000000001df40 00000000000000d9 T _ZN5Catch11XmlReporterD0Ev
000000000001e020 0000000000000048 T _ZN5Catch13TestCaseStatsD1Ev
000000000001e020 0000000000000048 T _ZN5Catch13TestCaseStatsD2Ev
000000000001e070 000000000000008c W _ZN5Catch22CumulativeReporterBase4NodeINS_13TestCaseStatsENS0_11SectionNodeEED1Ev
000000000001e070 000000000000008c W _ZN5Catch22CumulativeReporterBase4NodeINS_13TestCaseStatsENS0_11SectionNodeEED2Ev
000000000001e100 0000000000000094 W _ZN5Catch22CumulativeReporterBase4NodeINS_13TestCaseStatsENS0_11SectionNodeEED0Ev
000000000001e1a0 0000000000000012 T _ZN5Catch13TestCaseStatsD0Ev
000000000001e1c0 00000000000003a2 W _ZN5Catch11XmlReporter13testCaseEndedERKNS_13TestCaseStatsE
000000000001e570 000000000000013c W _ZN5Catch15CompactReporter12testRunEndedERKNS_12TestRunStatsE
000000000001e6b0 000000000000023c W _ZN5Catch11XmlReporter12testRunEndedERKNS_12TestRunStatsE
000000000001e8f0 0000000000000074 W _ZN5Catch8TestCaseD1Ev
000000000001e8f0 0000000000000074 W _ZN5Catch8TestCaseD2Ev
000000000001e970 0000000000000257 T _ZN5Catch12TestRegistryD1Ev
000000000001e970 0000000000000257 T _ZN5Catch12TestRegistryD2Ev
000000000001ebd0 0000000000000012 T _ZN5Catch12TestRegistryD0Ev
000000000001ebf0 0000000000000127 W _ZNSt6vectorIN5Catch8TestCaseESaIS1_EED1Ev
000000000001ebf0 0000000000000127 W _ZNSt6vectorIN5Catch8TestCaseESaIS1_EED2Ev
000000000001ed20 0000000000000194 t _ZN5Catch12_GLOBAL__N_117getTheRegistryHubEv
000000000001eec0 000000000000020f T _ZN5Catch14createReporterERKNSt7__cxx1112basic_stringIcSt11char_traitsIcESaIcEEERKNS_3PtrINS_6ConfigEEE
000000000001f0d0 0000000000000042 T _ZN5Catch21getAllTestCasesSortedERKNS_7IConfigE
000000000001f120 000000000000006c T _ZN5Catch24translateActiveExceptionB5cxx11Ev
000000000001f190 00000000000000c6 T _ZN5Catch13ResultBuilder18useActiveExceptionENS_17ResultDisposition5FlagsE
000000000001f260 000000000000061c t _ZL30____C_A_T_C_H____T_E_S_T____42v
000000000001f880 000000000000017f t _ZL30____C_A_T_C_H____T_E_S_T____40v
000000000001fa00 00000000000003c2 t _ZL30____C_A_T_C_H____T_E_S_T____38v
000000000001fdd0 0000000000001b12 t _ZL30____C_A_T_C_H____T_E_S_T____36v
00000000000218f0 0000000000000e9d t _ZL30____C_A_T_C_H____T_E_S_T____34v
0000000000022790 00000000000017a0 t _ZL30____C_A_T_C_H____T_E_S_T____32v
0000000000023f30 0000000000000d39 t _ZL30____C_A_T_C_H____T_E_S_T____30v
0000000000024c70 0000000000000d39 t _ZL30____C_A_T_C_H____T_E_S_T____28v
00000000000259b0 0000000000000d39 t _ZL30____C_A_T_C_H____T_E_S_T____26v
00000000000266f0 0000000000000d39 t _ZL30____C_A_T_C_H____T_E_S_T____24v
0000000000027430 0000000000000d39 t _ZL30____C_A_T_C_H____T_E_S_T____22v
0000000000028170 0000000000000f58 t _ZL30____C_A_T_C_H____T_E_S_T____20v
00000000000290d0 0000000000000f58 t _ZL30____C_A_T_C_H____T_E_S_T____18v
000000000002a030 0000000000000fa8 t _ZL30____C_A_T_C_H____T_E_S_T____16v
000000000002afe0 0000000000000f58 t _ZL30____C_A_T_C_H____T_E_S_T____14v
000000000002bf40 0000000000000f58 t _ZL30____C_A_T_C_H____T_E_S_T____12v
000000000002cea0 000000000000105a t _ZL30____C_A_T_C_H____T_E_S_T____10v
000000000002df00 0000000000001395 t _ZL29____C_A_T_C_H____T_E_S_T____8v
000000000002f2a0 0000000000000802 t _ZL29____C_A_T_C_H____T_E_S_T____6v
000000000002fab0 00000000000015bc t _ZL29____C_A_T_C_H____T_E_S_T____4v
0000000000031070 00000000000016cd t _ZL29____C_A_T_C_H____T_E_S_T____2v
0000000000032740 00000000000002b9 t _ZL29____C_A_T_C_H____T_E_S_T____0v
0000000000032a00 0000000000000036 T _ZN5Catch17ITagAliasRegistry3getEv
0000000000032a40 00000000000003ee W _ZN5Catch17ReporterRegistrarINS_11XmlReporterEEC1ERKNSt7__cxx1112basic_stringIcSt11char_traitsIcESaIcEEE
0000000000032a40 00000000000003ee W _ZN5Catch17ReporterRegistrarINS_11XmlReporterEEC2ERKNSt7__cxx1112basic_stringIcSt11char_traitsIcESaIcEEE
0000000000032e30 00000000000003ee W _ZN5Catch17ReporterRegistrarINS_13JunitReporterEEC1ERKNSt7__cxx1112basic_stringIcSt11char_traitsIcESaIcEEE
0000000000032e30 00000000000003ee W _ZN5Catch17ReporterRegistrarINS_13JunitReporterEEC2ERKNSt7__cxx1112basic_stringIcSt11char_traitsIcESaIcEEE
0000000000033220 00000000000003ee W _ZN5Catch17ReporterRegistrarINS_15ConsoleReporterEEC1ERKNSt7__cxx1112basic_stringIcSt11char_traitsIcESaIcEEE
0000000000033220 00000000000003ee W _ZN5Catch17ReporterRegistrarINS_15ConsoleReporterEEC2ERKNSt7__cxx1112basic_stringIcSt11char_traitsIcESaIcEEE
0000000000033610 00000000000003ee W _ZN5Catch17ReporterRegistrarINS_15CompactReporterEEC1ERKNSt7__cxx1112basic_stringIcSt11char_traitsIcESaIcEEE
0000000000033610 00000000000003ee W _ZN5Catch17ReporterRegistrarINS_15CompactReporterEEC2ERKNSt7__cxx1112basic_stringIcSt11char_traitsIcESaIcEEE
0000000000033a00 0000000000000399 W _ZN5Catch13listReportersERKNS_6ConfigE
0000000000033da0 000000000000005a W _ZNSt8_Rb_treeINSt7__cxx1112basic_stringIcSt11char_traitsIcESaIcEEESt4pairIKS5_N5Catch7TagInfoEESt10_Select1stISA_ESt4lessIS5_ESaISA_EE8_M_eraseEPSt13_Rb_tree_nodeISA_E
0000000000033e00 0000000000000337 W _ZNSt6vectorIN5Catch3PtrINS0_16TestCaseTracking8ITrackerEEESaIS4_EE17_M_realloc_insertIJRKS4_EEEvN9__gnu_cxx17__normal_iteratorIPS4_S6_EEDpOT_
0000000000034140 0000000000000058 W _ZN5Catch16TestCaseTracking11TrackerBase8addChildERKNS_3PtrINS0_8ITrackerEEE
00000000000341a0 000000000000047d W _ZNSt6vectorIN5Catch14SectionEndInfoESaIS1_EE17_M_realloc_insertIJRKS1_EEEvN9__gnu_cxx17__normal_iteratorIPS1_S3_EEDpOT_
0000000000034620 0000000000000134 W _ZN5Catch10RunContext17sectionEndedEarlyERKNS_14SectionEndInfoE
0000000000034760 0000000000000065 W _ZN3Tbc4TextD1Ev
0000000000034760 0000000000000065 W _ZN3Tbc4TextD2Ev
00000000000347d0 000000000000011f W _ZNSt8_Rb_treeIN5Catch8TestCaseES1_St9_IdentityIS1_ESt4lessIS1_ESaIS1_EE8_M_eraseEPSt13_Rb_tree_nodeIS1_E
00000000000348f0 000000000000008a W _ZNSt8_Rb_treeINSt7__cxx1112basic_stringIcSt11char_traitsIcESaIcEEESt4pairIKS5_N5Catch3PtrINS8_16IReporterFactoryEEEESt10_Select1stISC_ESt4lessIS5_ESaISC_EE8_M_eraseEPSt13_Rb_tree_nodeISC_E
0000000000034980 0000000000000084 W _ZN5Catch16ReporterRegistryD1Ev
0000000000034980 0000000000000084 W _ZN5Catch16ReporterRegistryD2Ev
0000000000034a10 0000000000000094 W _ZN5Catch16ReporterRegistryD0Ev
0000000000034ab0 0000000000000337 W _ZNSt6vectorIN5Catch3PtrINS0_16IReporterFactoryEEESaIS3_EE17_M_realloc_insertIJRKS3_EEEvN9__gnu_cxx17__normal_iteratorIPS3_S5_EEDpOT_
0000000000034df0 0000000000000073 t _ZN5Catch12_GLOBAL__N_111RegistryHub16registerListenerERKNS_3PtrINS_16IReporterFactoryEEE
0000000000034e70 0000000000000073 t _ZThn8_N5Catch12_GLOBAL__N_111RegistryHub16registerListenerERKNS_3PtrINS_16IReporterFactoryEEE
0000000000034ef0 000000000000012e W _ZNSt6vectorIPKN5Catch20IExceptionTranslatorESaIS3_EE17_M_realloc_insertIJRKS3_EEEvN9__gnu_cxx17__normal_iteratorIPS3_S5_EEDpOT_
0000000000035020 0000000000000069 t _ZN5Catch12_GLOBAL__N_111RegistryHub18registerTranslatorEPKNS_20IExceptionTranslatorE
0000000000035090 0000000000000069 t _ZThn8_N5Catch12_GLOBAL__N_111RegistryHub18registerTranslatorEPKNS_20IExceptionTranslatorE
0000000000035100 0000000000000043 W _ZN5Catch27ExceptionTranslatorRegistry18registerTranslatorEPKNS_20IExceptionTranslatorE
0000000000035150 0000000000000062 W _ZNSt8_Rb_treeINSt7__cxx1112basic_stringIcSt11char_traitsIcESaIcEEESt4pairIKS5_N5Catch8TagAliasEESt10_Select1stISA_ESt4lessIS5_ESaISA_EE8_M_eraseEPSt13_Rb_tree_nodeISA_E
00000000000351c0 0000000000000018 T _ZN5Catch16TagAliasRegistryD1Ev
00000000000351c0 0000000000000018 T _ZN5Catch16TagAliasRegistryD2Ev
00000000000351e0 000000000000011c t _ZN5Catch12_GLOBAL__N_111RegistryHubD1Ev
00000000000351e0 000000000000011c t _ZN5Catch12_GLOBAL__N_111RegistryHubD2Ev
0000000000035300 0000000000000025 T _ZN5Catch16TagAliasRegistryD0Ev
0000000000035330 0000000000000124 t _ZThn8_N5Catch12_GLOBAL__N_111RegistryHubD0Ev
0000000000035460 0000000000000124 t _ZN5Catch12_GLOBAL__N_111RegistryHubD0Ev
0000000000035590 000000000000011c t _ZThn8_N5Catch12_GLOBAL__N_111RegistryHubD1Ev
00000000000356b0 0000000000000052 W _ZNSt8_Rb_treeINSt7__cxx1112basic_stringIcSt11char_traitsIcESaIcEEESt4pairIKS5_PN5Catch18IGeneratorsForTestEESt10_Select1stISB_ESt4lessIS5_ESaISB_EE8_M_eraseEPSt13_Rb_tree_nodeISB_E
0000000000035710 00000000000001be W _ZNSt8_Rb_treeINSt7__cxx1112basic_stringIcSt11char_traitsIcESaIcEEESt4pairIKS5_PN5Catch18IGeneratorsForTestEESt10_Select1stISB_ESt4lessIS5_ESaISB_EE16_M_insert_uniqueIS6_IS5_SA_EEES6_ISt17_Rb_tree_iteratorISB_EbEOT_
00000000000358d0 0000000000000052 W _ZNSt8_Rb_treeINSt7__cxx1112basic_stringIcSt11char_traitsIcESaIcEEESt4pairIKS5_PN5Catch14IGeneratorInfoEESt10_Select1stISB_ESt4lessIS5_ESaISB_EE8_M_eraseEPSt13_Rb_tree_nodeISB_E
0000000000035930 0000000000000061 W _ZN5Catch17GeneratorsForTestD1Ev
0000000000035930 0000000000000061 W _ZN5Catch17GeneratorsForTestD2Ev
00000000000359a0 000000000000010f W _ZN5Catch7ContextD1Ev
00000000000359a0 000000000000010f W _ZN5Catch7ContextD2Ev
0000000000035ab0 0000000000000069 W _ZN5Catch17GeneratorsForTestD0Ev
0000000000035b20 00000000000000ff W _ZN5Catch7ContextD0Ev
0000000000035c20 0000000000000277 T _ZN5Catch7cleanUpEv
0000000000035ea0 00000000000002ba W _ZN5Catch7SessionD1Ev
0000000000035ea0 00000000000002ba W _ZN5Catch7SessionD2Ev
0000000000036160 0000000000000012 W _ZN5Catch7SessionD0Ev
0000000000036180 00000000000001be W _ZNSt8_Rb_treeINSt7__cxx1112basic_stringIcSt11char_traitsIcESaIcEEESt4pairIKS5_PN5Catch14IGeneratorInfoEESt10_Select1stISB_ESt4lessIS5_ESaISB_EE16_M_insert_uniqueIS6_IS5_SA_EEES6_ISt17_Rb_tree_iteratorISB_EbEOT_
0000000000036340 000000000000012e W _ZNSt6vectorIPN5Catch14IGeneratorInfoESaIS2_EE17_M_realloc_insertIJRKS2_EEEvN9__gnu_cxx17__normal_iteratorIPS2_S4_EEDpOT_
0000000000036470 00000000000001cd W _ZN5Catch17GeneratorsForTest16getGeneratorInfoERKNSt7__cxx1112basic_stringIcSt11char_traitsIcESaIcEEEm
0000000000036640 000000000000050b W _ZN5Catch7Context17getGeneratorIndexERKNSt7__cxx1112basic_stringIcSt11char_traitsIcESaIcEEEm
0000000000036b50 00000000000000fb W _ZNSt8_Rb_treeINSt7__cxx1112basic_stringIcSt11char_traitsIcESaIcEEES5_St9_IdentityIS5_ESt4lessIS5_ESaIS5_EE4swapERSB_
0000000000036c50 00000000000000c4 T _ZN5Catch8TestCase4swapERS0_
0000000000036d20 0000000000000220 W _ZNSt8_Rb_treeINSt7__cxx1112basic_stringIcSt11char_traitsIcESaIcEEESt4pairIKS5_N5Catch8TagAliasEESt10_Select1stISA_ESt4lessIS5_ESaISA_EE16_M_insert_uniqueIS6_IS5_S9_EEES6_ISt17_Rb_tree_iteratorISA_EbEOT_
0000000000036f40 0000000000000560 T _ZN5Catch16TagAliasRegistry3addERKNSt7__cxx1112basic_stringIcSt11char_traitsIcESaIcEEES8_RKNS_14SourceLineInfoE
00000000000374a0 000000000000000c t _ZN5Catch12_GLOBAL__N_111RegistryHub16registerTagAliasERKNSt7__cxx1112basic_stringIcSt11char_traitsIcESaIcEEES9_RKNS_14SourceLineInfoE
00000000000374b0 000000000000000c t _ZThn8_N5Catch12_GLOBAL__N_111RegistryHub16registerTagAliasERKNSt7__cxx1112basic_stringIcSt11char_traitsIcESaIcEEES9_RKNS_14SourceLineInfoE
00000000000374c0 0000000000000337 W _ZNSt6vectorIN5Catch3PtrINS0_18IStreamingReporterEEESaIS3_EE17_M_realloc_insertIJRKS3_EEEvN9__gnu_cxx17__normal_iteratorIPS3_S5_EEDpOT_
0000000000037800 0000000000000202 T _ZN5Catch11addReporterERKNS_3PtrINS_18IStreamingReporterEEES4_
0000000000037a10 0000000000000524 T _ZN5Catch12addListenersERKNS_3PtrIKNS_7IConfigEEENS0_INS_18IStreamingReporterEEE
0000000000037f40 000000000000026c T _ZN5Catch12makeReporterERKNS_3PtrINS_6ConfigEEE
00000000000381b0 00000000000003c3 W _ZNSt6vectorIN5Catch11SectionInfoESaIS1_EE17_M_realloc_insertIJRKS1_EEEvN9__gnu_cxx17__normal_iteratorIPS1_S3_EEDpOT_
0000000000038580 0000000000000235 W _ZN5Catch11XmlReporter15sectionStartingERKNS_11SectionInfoE
00000000000387c0 00000000000000bc W _ZN5Catch21StreamingReporterBase15sectionStartingERKNS_11SectionInfoE
0000000000038880 00000000000000c4 W _ZN5Catch15ConsoleReporter15sectionStartingERKNS_11SectionInfoE
0000000000038950 0000000000000337 W _ZNSt6vectorIN5Catch3PtrINS0_22CumulativeReporterBase11SectionNodeEEESaIS4_EE17_M_realloc_insertIJRKS4_EEEvN9__gnu_cxx17__normal_iteratorIPS4_S6_EEDpOT_
0000000000038c90 00000000000005ee W _ZNSt6vectorIN5Catch14AssertionStatsESaIS1_EE17_M_realloc_insertIJRKS1_EEEvN9__gnu_cxx17__normal_iteratorIPS1_S3_EEDpOT_
0000000000039280 00000000000001a2 W _ZN5Catch22CumulativeReporterBase14assertionEndedERKNS_14AssertionStatsE
0000000000039430 0000000000000244 W _ZN5Catch13JunitReporter14assertionEndedERKNS_14AssertionStatsE
0000000000039680 0000000000000337 W _ZNSt6vectorIN5Catch3PtrINS0_22CumulativeReporterBase4NodeINS0_13TestCaseStatsENS2_11SectionNodeEEEEESaIS7_EE17_M_realloc_insertIJRKS7_EEEvN9__gnu_cxx17__normal_iteratorIPS7_S9_EEDpOT_
00000000000399c0 0000000000000337 W _ZNSt6vectorIN5Catch3PtrINS0_22CumulativeReporterBase4NodeINS0_14TestGroupStatsENS3_INS0_13TestCaseStatsENS2_11SectionNodeEEEEEEESaIS9_EE17_M_realloc_insertIJRKS9_EEEvN9__gnu_cxx17__normal_iteratorIPS9_SB_EEDpOT_
0000000000039d00 00000000000001ec W _ZN5Catch22CumulativeReporterBase14testGroupEndedERKNS_14TestGroupStatsE
0000000000039ef0 000000000000025d W _ZN5Catch13JunitReporter14testGroupEndedERKNS_14TestGroupStatsE
000000000003a150 0000000000000337 W _ZNSt6vectorIN5Catch3PtrINS0_22CumulativeReporterBase4NodeINS0_12TestRunStatsENS3_INS0_14TestGroupStatsENS3_INS0_13TestCaseStatsENS2_11SectionNodeEEEEEEEEESaISB_EE17_M_realloc_insertIJRKSB_EEEvN9__gnu_cxx17__normal_iteratorIPSB_SD_EEDpOT_
000000000003a490 0000000000000208 W _ZN5Catch22CumulativeReporterBase12testRunEndedERKNS_12TestRunStatsE
000000000003a6a0 0000000000000337 W _ZNSt6vectorIN5Catch3PtrINS0_8TestSpec7PatternEEESaIS4_EE17_M_realloc_insertIJRKS4_EEEvN9__gnu_cxx17__normal_iteratorIPS4_S6_EEDpOT_
000000000003a9e0 0000000000000515 W _ZN5Catch14TestSpecParser10addPatternINS_8TestSpec10TagPatternEEEvv
000000000003af00 0000000000000634 W _ZN5Catch14TestSpecParser10addPatternINS_8TestSpec11NamePatternEEEvv
000000000003b540 000000000000030f W _ZN5Catch14TestSpecParser5parseERKNSt7__cxx1112basic_stringIcSt11char_traitsIcESaIcEEE
000000000003b850 00000000000005b0 W _ZN5Catch6ConfigC1ERKNS_10ConfigDataE
000000000003b850 00000000000005b0 W _ZN5Catch6ConfigC2ERKNS_10ConfigDataE
000000000003be00 0000000000000287 W _ZNSt6vectorIN5Catch5Clara6Parser5TokenESaIS3_EE17_M_realloc_insertIJS3_EEEvN9__gnu_cxx17__normal_iteratorIPS3_S5_EEDpOT_
000000000003c090 000000000000007b W _ZNSt6vectorIN5Catch5Clara6Parser5TokenESaIS3_EE12emplace_backIJS3_EEEvDpOT_
000000000003c110 000000000000019e W _ZSt9__find_ifIN9__gnu_cxx17__normal_iteratorIPKNSt7__cxx1112basic_stringIcSt11char_traitsIcESaIcEEESt6vectorIS7_SaIS7_EEEENS0_5__ops16_Iter_equals_valIS8_EEET_SH_SH_T0_St26random_access_iterator_tag
000000000003c2b0 00000000000000df W _ZNSt8_Rb_treeINSt7__cxx1112basic_stringIcSt11char_traitsIcESaIcEEES5_St9_IdentityIS5_ESt4lessIS5_ESaIS5_EE24_M_get_insert_unique_posERKS5_
000000000003c390 00000000000000d2 W _ZNSt8_Rb_treeINSt7__cxx1112basic_stringIcSt11char_traitsIcESaIcEEES5_St9_IdentityIS5_ESt4lessIS5_ESaIS5_EE16_M_insert_uniqueIRKS5_EESt4pairISt17_Rb_tree_iteratorIS5_EbEOT_
000000000003c470 00000000000000eb W _ZNSt8_Rb_treeINSt7__cxx1112basic_stringIcSt11char_traitsIcESaIcEEES5_St9_IdentityIS5_ESt4lessIS5_ESaIS5_EE16_M_insert_uniqueIS5_EESt4pairISt17_Rb_tree_iteratorIS5_EbEOT_
000000000003c560 0000000000000336 W _ZSt9__find_ifIN9__gnu_cxx17__normal_iteratorIPN5Catch3PtrINS2_16TestCaseTracking8ITrackerEEESt6vectorIS6_SaIS6_EEEENS0_5__ops10_Iter_predINS4_11TrackerBase14TrackerHasNameEEEET_SH_SH_T0_St26random_access_iterator_tag
000000000003c8a0 00000000000002b9 W _ZN5Catch16TestCaseTracking11TrackerBase9findChildERKNS0_15NameAndLocationE
000000000003cb60 000000000000012e W _ZNSt6vectorIPN5Catch16TestCaseTracking8ITrackerESaIS3_EE17_M_realloc_insertIJS3_EEEvN9__gnu_cxx17__normal_iteratorIPS3_S5_EEDpOT_
000000000003cc90 0000000000000177 W _ZNK5Catch5Clara11CommandLineINS_10ConfigDataEE3Arg8commandsB5cxx11Ev
000000000003ce10 00000000000004d5 W _ZNK5Catch5Clara11CommandLineINS_10ConfigDataEE8optUsageERSomm
000000000003d2f0 00000000000002c3 W _ZNK5Catch5Clara11CommandLineINS_10ConfigDataEE5usageERSoRKNSt7__cxx1112basic_stringIcSt11char_traitsIcESaIcEEE
000000000003d5c0 0000000000000190 W _ZNSt24uniform_int_distributionImEclIN5Catch21RandomNumberGeneratorEEEmRT_RKNS0_10param_typeE
000000000003d750 0000000000000398 W _ZNSt8_Rb_treeINSt7__cxx1112basic_stringIcSt11char_traitsIcESaIcEEES5_St9_IdentityIS5_ESt4lessIS5_ESaIS5_EE7_M_copyINSB_20_Reuse_or_alloc_nodeEEEPSt13_Rb_tree_nodeIS5_EPKSF_PSt18_Rb_tree_node_baseRT_
000000000003daf0 0000000000000133 W _ZNSt8_Rb_treeINSt7__cxx1112basic_stringIcSt11char_traitsIcESaIcEEES5_St9_IdentityIS5_ESt4lessIS5_ESaIS5_EEaSERKSB_
000000000003dc30 00000000000002c9 T _ZN5Catch7setTagsERNS_12TestCaseInfoERKSt3setINSt7__cxx1112basic_stringIcSt11char_traitsIcESaIcEEESt4lessIS8_ESaIS8_EE
000000000003df00 0000000000000192 T _ZN5Catch12TestCaseInfoC1ERKNSt7__cxx1112basic_stringIcSt11char_traitsIcESaIcEEES8_S8_RKSt3setIS6_St4lessIS6_ESaIS6_EERKNS_14SourceLineInfoE
000000000003df00 0000000000000192 T _ZN5Catch12TestCaseInfoC2ERKNSt7__cxx1112basic_stringIcSt11char_traitsIcESaIcEEES8_S8_RKSt3setIS6_St4lessIS6_ESaIS6_EERKNS_14SourceLineInfoE
000000000003e0a0 0000000000000171 W _ZSt9__find_ifIN9__gnu_cxx17__normal_iteratorIPN5Catch3PtrINS2_22CumulativeReporterBase11SectionNodeEEESt6vectorIS6_SaIS6_EEEENS0_5__ops10_Iter_predINS4_13BySectionInfoEEEET_SG_SG_T0_St26random_access_iterator_tag
000000000003e220 0000000000000513 W _ZN5Catch22CumulativeReporterBase15sectionStartingERKNS_11SectionInfoE
000000000003e740 0000000000000389 W _ZNSt6vectorIN5Catch15ConsoleReporter13SummaryColumnESaIS2_EE17_M_realloc_insertIJS2_EEEvN9__gnu_cxx17__normal_iteratorIPS2_S4_EEDpOT_
000000000003ead0 00000000000000ce W _ZNSt6vectorIN5Catch15ConsoleReporter13SummaryColumnESaIS2_EE12emplace_backIJS2_EEEvDpOT_
000000000003eba0 0000000000000789 W _ZN5Catch15ConsoleReporter11printTotalsERKNS_6TotalsE
000000000003f330 0000000000000107 W _ZN5Catch15ConsoleReporter12testRunEndedERKNS_12TestRunStatsE
000000000003f440 00000000000001ad W _ZN5Catch15ConsoleReporter14testGroupEndedERKNS_14TestGroupStatsE
000000000003f5f0 00000000000000ab W _ZNSt20__uninitialized_copyILb0EE13__uninit_copyIN9__gnu_cxx17__normal_iteratorIPKNSt7__cxx1112basic_stringIcSt11char_traitsIcESaIcEEESt6vectorIS9_SaIS9_EEEEPS9_EET0_T_SI_SH_
000000000003f6a0 0000000000000a14 W _ZNSt6vectorIN5Catch5Clara11CommandLineINS0_10ConfigDataEE3ArgESaIS5_EE17_M_realloc_insertIJS5_EEEvN9__gnu_cxx17__normal_iteratorIPS5_S7_EEDpOT_
00000000000400c0 0000000000000358 W _ZN5Catch5Clara11CommandLineINS_10ConfigDataEEixERKNSt7__cxx1112basic_stringIcSt11char_traitsIcESaIcEEE
0000000000040420 00000000000015f0 W _ZN5Catch21makeCommandLineParserEv
0000000000041a10 0000000000000297 W _ZN5Catch7SessionC1Ev
0000000000041a10 0000000000000297 W _ZN5Catch7SessionC2Ev
0000000000041cb0 000000000000018f W _ZNSt8_Rb_treeINSt7__cxx1112basic_stringIcSt11char_traitsIcESaIcEEES5_St9_IdentityIS5_ESt4lessIS5_ESaIS5_EE7_M_copyINSB_11_Alloc_nodeEEEPSt13_Rb_tree_nodeIS5_EPKSF_PSt18_Rb_tree_node_baseRT_
0000000000041e40 0000000000000488 T _ZN5Catch20applyFilenamesAsTagsERKNS_7IConfigE
00000000000422d0 0000000000000277 T _ZN5Catch12TestCaseInfoC1ERKS0_
00000000000422d0 0000000000000277 T _ZN5Catch12TestCaseInfoC2ERKS0_
0000000000042550 00000000000002f5 W _ZN5Catch11XmlReporter16testCaseStartingERKNS_12TestCaseInfoE
0000000000042850 000000000000035f W _ZN5Catch22CumulativeReporterBase13testCaseEndedERKNS_13TestCaseStatsE
0000000000042bb0 0000000000000051 W _ZN5Catch13JunitReporter13testCaseEndedERKNS_13TestCaseStatsE
0000000000042c10 0000000000000053 W _ZN5Catch21StreamingReporterBase16testCaseStartingERKNS_12TestCaseInfoE
0000000000042c70 0000000000000635 W _ZN5Catch10RunContext25handleFatalErrorConditionERKNSt7__cxx1112basic_stringIcSt11char_traitsIcESaIcEEE
00000000000432b0 000000000000005f T _ZN5Catch8TestCaseC1EPNS_9ITestCaseERKNS_12TestCaseInfoE
00000000000432b0 000000000000005f T _ZN5Catch8TestCaseC2EPNS_9ITestCaseERKNS_12TestCaseInfoE
0000000000043310 00000000000006b1 T _ZN5Catch12makeTestCaseEPNS_9ITestCaseERKNSt7__cxx1112basic_stringIcSt11char_traitsIcESaIcEEES9_S9_RKNS_14SourceLineInfoE
00000000000439d0 0000000000000064 T _ZN5Catch8TestCaseC1ERKS0_
00000000000439d0 0000000000000064 T _ZN5Catch8TestCaseC2ERKS0_
0000000000043a40 0000000000000413 T _ZN5Catch27enforceNoDuplicateTestCasesERKSt6vectorINS_8TestCaseESaIS1_EE
0000000000043e60 000000000000017c W _ZNSt6vectorIN5Catch8TestCaseESaIS1_EE7reserveEm
0000000000043fe0 0000000000000062 T _ZN5Catch8TestCaseaSERKS0_
0000000000044050 00000000000000e3 t _ZSt25__unguarded_linear_insertIN9__gnu_cxx17__normal_iteratorIPN5Catch8TestCaseESt6vectorIS3_SaIS3_EEEENS0_5__ops14_Val_less_iterEEvT_T0_.isra.789
0000000000044140 000000000000036b W _ZNSt6vectorIN5Catch8TestCaseESaIS1_EE17_M_realloc_insertIJRKS1_EEEvN9__gnu_cxx17__normal_iteratorIPS1_S3_EEDpOT_
00000000000444b0 00000000000001db W _ZN5Catch12TestRegistry12registerTestERKNS_8TestCaseE
0000000000044690 0000000000000009 t _ZN5Catch12_GLOBAL__N_111RegistryHub12registerTestERKNS_8TestCaseE
00000000000446a0 0000000000000009 t _ZThn8_N5Catch12_GLOBAL__N_111RegistryHub12registerTestERKNS_8TestCaseE
00000000000446b0 00000000000002a0 T _ZN5Catch16registerTestCaseEPNS_9ITestCaseEPKcRKNS_11NameAndDescERKNS_14SourceLineInfoE
0000000000044950 0000000000000045 T _ZN5Catch24registerTestCaseFunctionEPFvvERKNS_14SourceLineInfoERKNS_11NameAndDescE
00000000000449a0 00000000000005ae t _Z41__static_initialization_and_destruction_0ii.constprop.886
0000000000044f50 00000000000000d3 T _ZN5Catch11filterTestsERKSt6vectorINS_8TestCaseESaIS1_EERKNS_8TestSpecERKNS_7IConfigE
0000000000045030 0000000000000848 W _ZN5Catch9listTestsERKNS_6ConfigE
0000000000045880 000000000000042e W _ZN5Catch18listTestsNamesOnlyERKNS_6ConfigE
0000000000045cb0 0000000000000ff3 W _ZN5Catch8listTagsERKNS_6ConfigE
0000000000046cb0 0000000000000155 W _ZSt16__insertion_sortIN9__gnu_cxx17__normal_iteratorIPN5Catch8TestCaseESt6vectorIS3_SaIS3_EEEENS0_5__ops15_Iter_less_iterEEvT_SB_T0_
0000000000046e10 0000000000000087 W _ZSt4swapIN5Catch8TestCaseEENSt9enable_ifIXsrSt6__and_IJSt6__not_ISt15__is_tuple_likeIT_EESt21is_move_constructibleIS6_ESt18is_move_assignableIS6_EEE5valueEvE4typeERS6_SG_
0000000000046ea0 0000000000000283 W _ZSt7shuffleIN9__gnu_cxx17__normal_iteratorIPN5Catch8TestCaseESt6vectorIS3_SaIS3_EEEERNS2_21RandomNumberGeneratorEEvT_SB_OT0_
0000000000047130 00000000000000d0 W _ZNSt7__cxx1112basic_stringIwSt11char_traitsIwESaIwEE12_M_constructIPKwEEvT_S8_St20forward_iterator_tag
0000000000047200 00000000000002db W _ZNSt6vectorIN5Catch5Clara6Parser5TokenESaIS3_EE17_M_realloc_insertIJRKS3_EEEvN9__gnu_cxx17__normal_iteratorIPS3_S5_EEDpOT_
00000000000474e0 00000000000006ad W _ZNK5Catch5Clara11CommandLineINS_10ConfigDataEE15populateOptionsERKSt6vectorINS0_6Parser5TokenESaIS6_EERS2_
0000000000047b90 00000000000019c1 W _ZNK5Catch5Clara11CommandLineINS_10ConfigDataEE9parseIntoERKSt6vectorINSt7__cxx1112basic_stringIcSt11char_traitsIcESaIcEEESaISA_EERS2_
0000000000049560 000000000000008c W _ZNSt20__uninitialized_copyILb0EE13__uninit_copyISt13move_iteratorIPNSt7__cxx1112basic_stringIcSt11char_traitsIcESaIcEEEES9_EET0_T_SC_SB_
00000000000495f0 00000000000002fd W _ZNSt6vectorINSt7__cxx1112basic_stringIcSt11char_traitsIcESaIcEEESaIS5_EE15_M_range_insertIN9__gnu_cxx17__normal_iteratorIPKS5_S7_EEEEvNSA_IPS5_S7_EET_SG_St20forward_iterator_tag
00000000000498f0 0000000000000707 W _ZN5Catch16TestCaseTracking14SectionTracker7acquireERNS0_14TrackerContextERKNS0_15NameAndLocationE
000000000004a000 00000000000001a7 W _ZN5Catch10RunContext14sectionStartedERKNS_11SectionInfoERNS_6CountsE
000000000004a1b0 0000000000003593 T _ZN5Catch8runTestsERKNS_3PtrINS_6ConfigEEE
000000000004d750 00000000000002d6 W _ZSt13__adjust_heapIN9__gnu_cxx17__normal_iteratorIPN5Catch8TestCaseESt6vectorIS3_SaIS3_EEEElS3_NS0_5__ops15_Iter_less_iterEEvT_T0_SC_T1_T2_
000000000004da30 000000000000020f W _ZSt11__make_heapIN9__gnu_cxx17__normal_iteratorIPN5Catch8TestCaseESt6vectorIS3_SaIS3_EEEENS0_5__ops15_Iter_less_iterEEvT_SB_RT0_
000000000004dc40 00000000000000c9 t _ZSt10__pop_heapIN9__gnu_cxx17__normal_iteratorIPN5Catch8TestCaseESt6vectorIS3_SaIS3_EEEENS0_5__ops15_Iter_less_iterEEvT_SB_SB_RT0_.isra.811
000000000004dd10 000000000000053f t _ZSt16__introsort_loopIN9__gnu_cxx17__normal_iteratorIPN5Catch8TestCaseESt6vectorIS3_SaIS3_EEEElNS0_5__ops15_Iter_less_iterEEvT_SB_T0_T1_.isra.814
000000000004e250 0000000000000559 W _ZNK5Catch12TestRegistry17getAllTestsSortedERKNS_7IConfigE
000000000004e7b0 0000000000000448 W _ZN5Catch5Clara6Detail11convertIntoIiEEvRKNSt7__cxx1112basic_stringIcSt11char_traitsIcESaIcEEERT_
000000000004ec00 000000000000004f W _ZNK5Catch5Clara6Detail19BoundBinaryFunctionINS_10ConfigDataEiE3setERS3_RKNSt7__cxx1112basic_stringIcSt11char_traitsIcESaIcEEE
000000000004ec50 0000000000000065 T __libc_csu_init
000000000004ecc0 0000000000000002 T __libc_csu_fini
000000000004ecd0 0000000000000029 t atexit
000000000004ecfc T _fini
0000000000051ea0 000000000000005d r _ZZNK5Catch13ResultBuilder5buildERKNS_20DecomposedExpressionEE19__PRETTY_FUNCTION__
0000000000051f00 0000000000000041 r _ZZN5Catch10RunContext7runTestERKNS_8TestCaseEE19__PRETTY_FUNCTION__
0000000000051f60 000000000000005a r _ZZN5Catch16TestCaseTracking11TrackerBase6parentEvE19__PRETTY_FUNCTION__
0000000000051fc0 00000000000000bc r _ZZN5Catch16TestCaseTracking14SectionTracker7acquireERNS0_14TrackerContextERKNS0_15NameAndLocationEE19__PRETTY_FUNCTION__
0000000000052080 000000000000003a r _ZZN5Catch16TestCaseTracking11TrackerBase12moveToParentEvE19__PRETTY_FUNCTION__
00000000000520c0 0000000000000059 r _ZZN5Catch22CumulativeReporterBase14assertionEndedERKNS_14AssertionStatsEE19__PRETTY_FUNCTION__
0000000000052120 000000000000003d r _ZZN5Catch15ConsoleReporter29printTestCaseAndSectionHeaderEvE19__PRETTY_FUNCTION__
0000000000052160 0000000000000055 r _ZZN5Catch22CumulativeReporterBase12sectionEndedERKNS_12SectionStatsEE19__PRETTY_FUNCTION__
00000000000521c0 0000000000000057 r _ZZN5Catch22CumulativeReporterBase13testCaseEndedERKNS_13TestCaseStatsEE19__PRETTY_FUNCTION__
0000000000052220 000000000000003e r _ZZN5Catch13JunitReporter13writeTestCaseERKNS_22CumulativeReporterBase4NodeINS_13TestCaseStatsENS1_11SectionNodeEEEE19__PRETTY_FUNCTION__
0000000000052260 0000000000000010 V _ZTSSt11logic_error
0000000000052270 0000000000000011 V _ZTSSt12domain_error
0000000000052290 0000000000000012 V _ZTSSt13runtime_error
00000000000522b0 000000000000001f V _ZTSN5Catch20TestFailureExceptionE
00000000000522d0 000000000000000d V _ZTSSt9exception
00000000000522e0 0000000000000035 V _ZTSNSt7__cxx1112basic_stringIcSt11char_traitsIcESaIcEEE
0000000000052320 0000000000000050 r _ZZN4testL5_ftoaEdPcmjjjE5pow10
0000000000052510 r __GNU_EH_FRAME_HDR
000000000005b014 r __FRAME_END__
0000000000260520 t __frame_dummy_init_array_entry
0000000000260520 t __init_array_start
0000000000260530 t __do_global_dtors_aux_fini_array_entry
0000000000260530 t __init_array_end
0000000000260540 0000000000000030 V _ZTVN5Catch13ExpressionLhsIbEE
0000000000260570 00000000000000a0 V _ZTVN5Catch10RunContextE
0000000000260610 0000000000000020 V _ZTVN5Catch7SessionE
0000000000260630 0000000000000038 V _ZTVN5Catch16ReporterRegistryE
0000000000260668 0000000000000030 V _ZTVN5Catch27ExceptionTranslatorRegistryE
0000000000260698 00000000000000b0 d _ZTVN5Catch12_GLOBAL__N_111RegistryHubE
0000000000260748 0000000000000060 V _ZTVN5Catch7ContextE
00000000002607a8 0000000000000028 d _ZTVN5Catch12_GLOBAL__N_112NoColourImplE
00000000002607d0 0000000000000028 d _ZTVN5Catch12_GLOBAL__N_115PosixColourImplE
00000000002607f8 0000000000000030 V _ZTVN5Catch13GeneratorInfoE
0000000000260828 0000000000000030 V _ZTVN5Catch17GeneratorsForTestE
0000000000260858 0000000000000030 V _ZTVN5Catch13ResultBuilderE
0000000000260888 0000000000000030 V _ZTVN5Catch16TagAliasRegistryE
00000000002608b8 00000000000000a0 V _ZTVN5Catch17MultipleReportersE
0000000000260958 0000000000000030 V _ZTVN5Catch22CumulativeReporterBase4NodeINS_13TestCaseStatsENS0_11SectionNodeEEE
0000000000260988 0000000000000030 V _ZTVN5Catch22CumulativeReporterBase4NodeINS_14TestGroupStatsENS1_INS_13TestCaseStatsENS0_11SectionNodeEEEEE
00000000002609b8 0000000000000030 V _ZTVN5Catch22CumulativeReporterBase4NodeINS_12TestRunStatsENS1_INS_14TestGroupStatsENS1_INS_13TestCaseStatsENS0_11SectionNodeEEEEEEE
00000000002609e8 0000000000000028 V _ZTVN5Catch10FileStreamE
0000000000260a10 0000000000000028 V _ZTVN5Catch10CoutStreamE
0000000000260a38 0000000000000028 V _ZTVN5Catch14DebugOutStreamE
0000000000260a60 0000000000000020 V _ZTVN5Catch14AssertionStatsE
0000000000260a80 0000000000000020 V _ZTVN5Catch12SectionStatsE
0000000000260aa0 0000000000000020 V _ZTVN5Catch13TestCaseStatsE
0000000000260ac0 0000000000000020 V _ZTVN5Catch14TestGroupStatsE
0000000000260ae0 0000000000000020 V _ZTVN5Catch12TestRunStatsE
0000000000260b00 0000000000000030 V _ZTVN5Catch22CumulativeReporterBase11SectionNodeE
0000000000260b30 00000000000000a0 V _ZTVN5Catch15ConsoleReporterE
0000000000260bd0 00000000000000a0 V _ZTVN5Catch15CompactReporterE
0000000000260c70 00000000000000a8 V _ZTVN5Catch11XmlReporterE
0000000000260d18 00000000000000b0 V _ZTVN5Catch13JunitReporterE
0000000000260dc8 0000000000000038 V _ZTVN5Catch12TestRegistryE
0000000000260e00 0000000000000038 V _ZTVN5Catch20FreeFunctionTestCaseE
0000000000260e38 0000000000000028 V _ZTVN5Catch15WildcardPatternE
0000000000260e60 0000000000000038 V _ZTVN5Catch8TestSpec11NamePatternE
0000000000260e98 0000000000000038 V _ZTVN5Catch8TestSpec10TagPatternE
0000000000260ed0 0000000000000038 V _ZTVN5Catch8TestSpec15ExcludedPatternE
0000000000260f08 00000000000000a8 V _ZTVN5Catch6ConfigE
0000000000260fb0 00000000000000a0 V _ZTVN5Catch16TestCaseTracking11TrackerBaseE
0000000000261050 00000000000000a0 V _ZTVN5Catch16TestCaseTracking14SectionTrackerE
00000000002610f0 0000000000000030 V _ZTVN5Catch16BinaryExpressionIRKiLNS_8Internal8OperatorE0ES2_EE
0000000000261120 0000000000000038 V _ZTVN5Catch5Clara6Detail10NullBinderINS_10ConfigDataEEE
0000000000261158 0000000000000038 V _ZTVN5Catch5Clara6Detail15BoundDataMemberINS_10ConfigDataENSt7__cxx1112basic_stringIcSt11char_traitsIcESaIcEEEEE
0000000000261190 0000000000000038 V _ZTVN5Catch5Clara6Detail15BoundDataMemberINS_10ConfigDataEbEE
00000000002611c8 0000000000000038 V _ZTVN5Catch5Clara6Detail19BoundBinaryFunctionINS_10ConfigDataERKNSt7__cxx1112basic_stringIcSt11char_traitsIcESaIcEEEEE
0000000000261200 0000000000000038 V _ZTVN5Catch5Clara6Detail18BoundUnaryFunctionINS_10ConfigDataEEE
0000000000261238 0000000000000038 V _ZTVN5Catch5Clara6Detail19BoundBinaryFunctionINS_10ConfigDataEiEE
0000000000261270 0000000000000038 V _ZTVN5Catch5Clara6Detail19BoundBinaryFunctionINS_10ConfigDataEbEE
00000000002612a8 0000000000000040 V _ZTVN5Catch17ReporterRegistrarINS_11XmlReporterEE15ReporterFactoryE
00000000002612e8 0000000000000040 V _ZTVN5Catch17ReporterRegistrarINS_13JunitReporterEE15ReporterFactoryE
0000000000261328 0000000000000040 V _ZTVN5Catch17ReporterRegistrarINS_15ConsoleReporterEE15ReporterFactoryE
0000000000261368 0000000000000040 V _ZTVN5Catch17ReporterRegistrarINS_15CompactReporterEE15ReporterFactoryE
00000000002613c0 0000000000000020 V _ZTVSt9basic_iosIcSt11char_traitsIcEE@@GLIBCXX_3.4
00000000002613e0 0000000000000050 V _ZTTNSt7__cxx1118basic_stringstreamIcSt11char_traitsIcESaIcEEE@@GLIBCXX_3.4.21
0000000000261430 0000000000000080 V _ZTVSt15basic_streambufIcSt11char_traitsIcEE@@GLIBCXX_3.4
00000000002614b0 0000000000000020 V _ZTTSt14basic_ofstreamIcSt11char_traitsIcEE@@GLIBCXX_3.4
00000000002614d0 0000000000000050 V _ZTVNSt7__cxx1119basic_ostringstreamIcSt11char_traitsIcESaIcEEE@@GLIBCXX_3.4.21
0000000000261520 0000000000000050 V _ZTVSt14basic_ifstreamIcSt11char_traitsIcEE@@GLIBCXX_3.4
0000000000261580 0000000000000078 V _ZTVNSt7__cxx1118basic_stringstreamIcSt11char_traitsIcESaIcEEE@@GLIBCXX_3.4.21
00000000002615f8 0000000000000020 V _ZTTNSt7__cxx1119basic_ostringstreamIcSt11char_traitsIcESaIcEEE@@GLIBCXX_3.4.21
0000000000261618 0000000000000050 V _ZTVSo@@GLIBCXX_3.4
0000000000261668 0000000000000080 V _ZTVSt13basic_filebufIcSt11char_traitsIcEE@@GLIBCXX_3.4
00000000002616e8 0000000000000050 V _ZTVSt14basic_ofstreamIcSt11char_traitsIcEE@@GLIBCXX_3.4
0000000000261738 0000000000000020 V _ZTTSt14basic_ifstreamIcSt11char_traitsIcEE@@GLIBCXX_3.4
0000000000261758 0000000000000080 V _ZTVNSt7__cxx1115basic_stringbufIcSt11char_traitsIcESaIcEEE@@GLIBCXX_3.4.21
00000000002617d8 0000000000000018 V _ZTISt11logic_error
00000000002617f0 0000000000000018 V _ZTISt12domain_error
0000000000261808 0000000000000018 V _ZTISt13runtime_error
0000000000261820 0000000000000010 V _ZTIN5Catch20TestFailureExceptionE
0000000000261830 0000000000000010 V _ZTISt9exception
0000000000261840 0000000000000010 V _ZTINSt7__cxx1112basic_stringIcSt11char_traitsIcESaIcEEE
0000000000261850 0000000000000080 V _ZTVN5Catch13StreamBufImplINS_17OutputDebugWriterELm256EEE
00000000002618d0 00000000000000b0 V _ZTVN5Catch22CumulativeReporterBaseE
0000000000261980 00000000000000a0 V _ZTVN5Catch21StreamingReporterBaseE
0000000000261a20 d _DYNAMIC
0000000000261c30 d _GLOBAL_OFFSET_TABLE_
0000000000262000 D __dso_handle
0000000000262008 0000000000000008 d _ZZN5Catch12_GLOBAL__N_115PosixColourImpl8instanceEvE10s_instance
0000000000262010 0000000000000008 d _ZZN5Catch12_GLOBAL__N_112NoColourImpl8instanceEvE10s_instance
0000000000262020 0000000000000060 D _ZN5Catch10signalDefsE
0000000000262080 0000000000000008 V DW.ref._ZTIN5Catch20TestFailureExceptionE
0000000000262088 0000000000000008 V DW.ref._ZTINSt7__cxx1112basic_stringIcSt11char_traitsIcESaIcEEE
0000000000262090 0000000000000008 V DW.ref._ZTIPKc
0000000000262098 0000000000000008 V DW.ref._ZTISt9exception
00000000002620a0 0000000000000008 V DW.ref.__gxx_personality_v0
00000000002620a8 D __TMC_END__
00000000002620a8 B __bss_start
00000000002620a8 D _edata
00000000002620c0 0000000000000110 B _ZSt4cout@@GLIBCXX_3.4
00000000002621e0 0000000000000110 B _ZSt4cerr@@GLIBCXX_3.4
00000000002622f0 0000000000000001 b completed.7641
0000000000262300 0000000000000050 u _ZZN5Catch14getLineOfCharsILc46EEEPKcvE4line
0000000000262360 0000000000000050 u _ZZN5Catch14getLineOfCharsILc45EEEPKcvE4line
00000000002623c0 0000000000000050 u _ZZN5Catch14getLineOfCharsILc126EEEPKcvE4line
0000000000262410 0000000000000001 b _ZN5Catch12_GLOBAL__N_142catch_internal_RegistrarForCompactReporterE
0000000000262411 0000000000000001 b _ZN5Catch12_GLOBAL__N_142catch_internal_RegistrarForConsoleReporterE
0000000000262412 0000000000000001 b _ZN5Catch12_GLOBAL__N_140catch_internal_RegistrarForJunitReporterE
0000000000262413 0000000000000001 b _ZN5Catch12_GLOBAL__N_138catch_internal_RegistrarForXmlReporterE
0000000000262420 0000000000000020 B _ZN5Catch6Detail17unprintableStringB5cxx11E
0000000000262440 0000000000000004 B _ZN5Catch11MessageInfo11globalCountE
0000000000262448 0000000000000008 u _ZGVZN5Catch14libraryVersionEvE7version
0000000000262460 0000000000000020 u _ZZN5Catch14libraryVersionEvE7version
0000000000262480 0000000000000008 b _ZGVZN5Catch6Colour3useENS0_4CodeEE4impl
0000000000262488 0000000000000008 b _ZZN5Catch6Colour3useENS0_4CodeEE4impl
0000000000262490 0000000000000008 b _ZGVZN5Catch12_GLOBAL__N_115PosixColourImpl8instanceEvE10s_instance
0000000000262498 0000000000000008 b _ZGVZN5Catch12_GLOBAL__N_112NoColourImpl8instanceEvE10s_instance
00000000002624a0 0000000000000008 b _ZN5Catch12_GLOBAL__N_114currentContextE
00000000002624a8 0000000000000001 b _ZStL8__ioinit
00000000002624b0 0000000000000008 b _ZZN5Catch12_GLOBAL__N_117getTheRegistryHubEvE14theRegistryHub
00000000002624b8 0000000000000001 B _ZN5Catch7Session19alreadyInstantiatedE
00000000002624c0 0000000000002000 B _ZN5Catch21FatalConditionHandler11altStackMemE
00000000002644c0 0000000000000018 B _ZN5Catch21FatalConditionHandler11oldSigStackE
00000000002644e0 0000000000000390 B _ZN5Catch21FatalConditionHandler13oldSigActionsE
0000000000264870 0000000000000001 B _ZN5Catch21FatalConditionHandler5isSetE
0000000000264878 0000000000000008 u _ZGVZN5Catch13ResultBuilder8m_streamEvE1s
0000000000264880 0000000000000178 u _ZZN5Catch13ResultBuilder8m_streamEvE1s
00000000002649f8 B _end
